--------------------------------------------------
Z80 DISASSEMBLER LISTING
Line   Addr Opcodes     Label   Instruction
--------------------------------------------------

0001   0000 F3          L0014:  DI
0002   0001 21 00 3C            LD HL,3C00H
0003   0004 3E FC               LD A,0FCH
0004   0006 18 20               JR L0001
0005   0008 D9                  EXX
0006   0009 DD CB 3E 5E         BIT 3,(IX+3EH)
0007   000D C3 EE 03            JP L0002
0008   0010 2A 3B 3C            LD HL,(3C3BH)
0009   0013 73                  LD (HL),E
0010   0014 23                  INC HL
0011   0015 C3 5F 08            JP L0003
0012   0018 2A 3B 3C            LD HL,(3C3BH)
0013   001B 2B                  DEC HL
0014   001C 56                  LD D,(HL)
0015   001D C3 59 08            JP L0004
0016   0020 E1                  POP HL
0017   0021 7E                  LD A,(HL)
0018   0022 32 3D 3C            LD (3C3DH),A
0019   0025 C3 AD 00            JP L0005
0020   0028 24          L0001:  INC H
0021   0029 77                  LD (HL),A
0022   002A BE                  CP (HL)
0023   002B 28 FB               JR Z,L0001
0024   002D A4                  AND H
0025   002E 67                  LD H,A
0026   002F 22 18 3C            LD (3C18H),HL
0027   0032 F9                  LD SP,HL
0028   0033 21 0D 01            LD HL,010DH
0029   0036 18 03               JR L0006
0030   0038 C3 3A 01            JP L0007
0031   003B 11 24 3C    L0006:  LD DE,3C24H
0032   003E 01 2D 00            LD BC,002DH
0033   0041 ED B0               LDIR
0034   0043 DD 21 00 3C         LD IX,3C00H
0035   0047 FD 21 C8 04         LD IY,04C8H
0036   004B CD 24 0A            CALL L0008
0037   004E AF                  XOR A
0038   004F 32 00 27            LD (2700H),A
0039   0052 21 00 2C            LD HL,2C00H
0040   0055 7D          L0010:  LD A,L
0041   0056 E6 BF               AND 0BFH
0042   0058 0F                  RRCA
0043   0059 0F                  RRCA
0044   005A 0F                  RRCA
0045   005B 30 02               JR NC,L0009
0046   005D 0F                  RRCA
0047   005E 0F                  RRCA
0048   005F 0F          L0009:  RRCA
0049   0060 47                  LD B,A
0050   0061 9F                  SBC A,A
0051   0062 CB 18               RR B
0052   0064 47                  LD B,A
0053   0065 9F                  SBC A,A
0054   0066 A8                  XOR B
0055   0067 E6 F0               AND 0F0H
0056   0069 A8                  XOR B
0057   006A 77                  LD (HL),A
0058   006B 2C                  INC L
0059   006C 20 E7               JR NZ,L0010
0060   006E 11 FF 2F            LD DE,2FFFH
0061   0071 21 FB 1F            LD HL,1FFBH
0062   0074 01 08 00            LD BC,0008H
0063   0077 ED B8               LDDR
0064   0079 EB                  EX DE,HL
0065   007A 3E 5F               LD A,5FH
0066   007C 0E 07       L0012:  LD C,07H
0067   007E CB 6F               BIT 5,A
0068   0080 28 03               JR Z,L0011
0069   0082 70                  LD (HL),B
0070   0083 2B                  DEC HL
0071   0084 0D                  DEC C
0072   0085 EB          L0011:  EX DE,HL
0073   0086 ED B8               LDDR
0074   0088 EB                  EX DE,HL
0075   0089 70                  LD (HL),B
0076   008A 2B                  DEC HL
0077   008B 3D                  DEC A
0078   008C 20 EE               JR NZ,L0012
0079   008E ED 56               IM 1
0080   0090 18 09               JR L0013
0081   0092 51                  LD D,C
0082   0093 55                  LD D,L
0083   0094 49                  LD C,C
0084   0095 D4 00 00            CALL NC,L0014
0085   0098 04          L0016:  INC B
0086   0099 9B                  SBC A,E
0087   009A 00                  NOP
0088   009B ED 7B 18 3C L0013:  LD SP,(3C18H)
0089   009F FB                  EI
0090   00A0 C3 F2 04            JP L0015
0091   00A3 41                  LD B,C
0092   00A4 42                  LD B,D
0093   00A5 4F                  LD C,A
0094   00A6 52                  LD D,D
0095   00A7 D4 98 00            CALL NC,L0016
0096   00AA 05                  DEC B
0097   00AB AD                  XOR L
0098   00AC 00                  NOP
0099   00AD FD E5       L0005:  PUSH IY
0100   00AF FD 21 B9 04         LD IY,04B9H
0101   00B3 2A 37 3C            LD HL,(3C37H)
0102   00B6 22 3B 3C            LD (3C3BH),HL
0103   00B9 21 3E 3C            LD HL,3C3EH
0104   00BC 7E                  LD A,(HL)
0105   00BD E6 B3               AND 0B3H
0106   00BF CB 56               BIT 2,(HL)
0107   00C1 77                  LD (HL),A
0108   00C2 28 1A               JR Z,L0017
0109   00C4 CD B9 04            CALL L0018
0110   00C7 90                  SUB B
0111   00C8 04                  INC B
0112   00C9 B3                  OR E
0113   00CA 08                  EX AF,AF'
0114   00CB 4B                  LD C,E
0115   00CC 10 05               DJNZ L0019
0116   00CE D2 0D 6B            JP NC,L0020
0117   00D1 08                  EX AF,AF'
0118   00D2 10 16               DJNZ L0021
0119   00D4 B5                  OR L
0120   00D5 15                  DEC D
0121   00D6 11 10 37            LD DE,3710H
0122   00D9 3C                  INC A
0123   00DA C1                  POP BC
0124   00DB 08                  EX AF,AF'
0125   00DC 0E 1A               LD C,1AH
0126   00DE DD CB 3D 7E L0017:  BIT 7,(IX+3DH)
0127   00E2 20 1B               JR NZ,L0022
0128   00E4 CD 08 18            CALL L0023
0129   00E7 45                  LD B,L
0130   00E8 52                  LD D,D
0131   00E9 52                  LD D,D
0132   00EA 4F          L0021:  LD C,A
0133   00EB D2 CD B9            JP NC,L0024
0134   00EE 04                  INC B
0135   00EF 11 10 3D            LD DE,3D10H
0136   00F2 3C                  INC A
0137   00F3 96                  SUB (HL)
0138   00F4 08                  EX AF,AF'
0139   00F5 B3                  OR E
0140   00F6 09                  ADD HL,BC
0141   00F7 95                  SUB L
0142   00F8 0A                  LD A,(BC)
0143   00F9 0E 1A               LD C,1AH
0144   00FB DD 36 3D FF         LD (IX+3DH),0FFH
0145   00FF 2A 37 3C    L0022:  LD HL,(3C37H)
0146   0102 01 0C 00            LD BC,000CH
0147   0105 09                  ADD HL,BC
0148   0106 22 3B 3C            LD (3C3BH),HL
0149   0109 FD E1               POP IY
0150   010B 18 8E               JR L0013
0151   010D E0                  RET PO
0152   010E 26 00               LD H,00H
0153   0110 00                  NOP
0154   0111 00                  NOP
0155   0112 00                  NOP
0156   0113 00                  NOP
0157   0114 00                  NOP
0158   0115 00                  NOP
0159   0116 00                  NOP
0160   0117 00                  NOP
0161   0118 00                  NOP
0162   0119 00                  NOP
0163   011A 4C                  LD C,H
0164   011B 3C                  INC A
0165   011C 4C                  LD C,H
0166   011D 3C                  INC A
0167   011E 4F                  LD C,A
0168   011F 3C                  INC A
0169   0120 51                  LD D,C
0170   0121 3C                  INC A
0171   0122 45                  LD B,L
0172   0123 3C                  INC A
0173   0124 5D                  LD E,L
0174   0125 3C                  INC A
0175   0126 FF                  RST 38H
0176   0127 00                  NOP
0177   0128 0A                  LD A,(BC)
0178   0129 46                  LD B,(HL)
0179   012A 4F                  LD C,A
0180   012B 52                  LD D,D
0181   012C 54                  LD D,H
0182   012D C8                  RET Z
0183   012E 00                  NOP
0184   012F 00                  NOP
0185   0130 FF                  RST 38H
0186   0131 1F                  RRA
0187   0132 05                  DEC B
0188   0133 B5                  OR L
0189   0134 11 49 3C            LD DE,3C49H
0190   0137 00                  NOP
0191   0138 00                  NOP
0192   0139 00                  NOP
0193   013A F5          L0007:  PUSH AF
0194   013B 08                  EX AF,AF'
0195   013C F5                  PUSH AF
0196   013D C5                  PUSH BC
0197   013E D5                  PUSH DE
0198   013F E5                  PUSH HL
0199   0140 06 3E               LD B,3EH
0200   0142 10 FE       L0025:  DJNZ L0025
0201   0144 21 2B 3C            LD HL,3C2BH
0202   0147 34          L0026:  INC (HL)
0203   0148 23                  INC HL
0204   0149 28 FC               JR Z,L0026
0205   014B CD 10 03            CALL L0027
0206   014E 21 28 3C            LD HL,3C28H
0207   0151 CB 46               BIT 0,(HL)
0208   0153 28 21               JR Z,L0028
0209   0155 A7                  AND A
0210   0156 28 1E               JR Z,L0028
0211   0158 FE 20               CP 20H
0212   015A 38 14               JR C,L0029
0213   015C CB 4E               BIT 1,(HL)
0214   015E C4 07 08            CALL NZ,L0030
0215   0161 CB 56               BIT 2,(HL)
0216   0163 28 02               JR Z,L0031
0217   0165 E6 9F               AND 9FH
0218   0167 CB 5E       L0031:  BIT 3,(HL)
0219   0169 28 02               JR Z,L0032
0220   016B F6 80               OR 80H
0221   016D CD 96 01    L0032:  CALL L0033
0222   0170 CD E6 01    L0029:  CALL L0034
0223   0173 CD 82 02            CALL L0035
0224   0176 E1          L0028:  POP HL
0225   0177 D1                  POP DE
0226   0178 C1                  POP BC
0227   0179 F1                  POP AF
0228   017A 08                  EX AF,AF'
0229   017B F1                  POP AF
0230   017C FB                  EI
0231   017D C9                  RET
0232   017E FE 0D       L0056:  CP 0DH
0233   0180 20 14               JR NZ,L0033
0234   0182 21 00 27            LD HL,2700H
0235   0185 22 22 3C            LD (3C22H),HL
0236   0188 22 20 3C            LD (3C20H),HL
0237   018B AF                  XOR A
0238   018C CD 98 01            CALL L0036
0239   018F 21 E0 26            LD HL,26E0H
0240   0192 22 1E 3C            LD (3C1EH),HL
0241   0195 C9                  RET
0242   0196 A7          L0033:  AND A
0243   0197 C8                  RET Z
0244   0198 08          L0036:  EX AF,AF'
0245   0199 2A 22 3C            LD HL,(3C22H)
0246   019C 7E                  LD A,(HL)
0247   019D A7                  AND A
0248   019E 28 06               JR Z,L0037
0249   01A0 11 00 D9            LD DE,0D900H
0250   01A3 19                  ADD HL,DE
0251   01A4 30 28               JR NC,L0038
0252   01A6 ED 5B 24 3C L0037:  LD DE,(3C24H)
0253   01AA 21 A0 DB            LD HL,0DBA0H
0254   01AD 19                  ADD HL,DE
0255   01AE 30 34               JR NC,L0039
0256   01B0 2A 1C 3C            LD HL,(3C1CH)
0257   01B3 01 20 00            LD BC,0020H
0258   01B6 09                  ADD HL,BC
0259   01B7 ED 52               SBC HL,DE
0260   01B9 D5                  PUSH DE
0261   01BA D4 21 04            CALL NC,L0040
0262   01BD CD B0 02            CALL L0041
0263   01C0 D1                  POP DE
0264   01C1 CD 2F 04            CALL L0042
0265   01C4 21 1E 3C            LD HL,3C1EH
0266   01C7 06 04               LD B,04H
0267   01C9 CD 43 04    L0044:  CALL L0043
0268   01CC 10 FB               DJNZ L0044
0269   01CE CD 02 03    L0038:  CALL L0045
0270   01D1 54                  LD D,H
0271   01D2 5D                  LD E,L
0272   01D3 23                  INC HL
0273   01D4 22 22 3C            LD (3C22H),HL
0274   01D7 2B                  DEC HL
0275   01D8 2B                  DEC HL
0276   01D9 28 02               JR Z,L0046
0277   01DB ED B8               LDDR
0278   01DD 08          L0046:  EX AF,AF'
0279   01DE 12                  LD (DE),A
0280   01DF 13                  INC DE
0281   01E0 ED 53 20 3C         LD (3C20H),DE
0282   01E4 AF          L0039:  XOR A
0283   01E5 C9                  RET
0284   01E6 21 F0 01    L0034:  LD HL,01F0H
0285   01E9 16 00               LD D,00H
0286   01EB 5F                  LD E,A
0287   01EC 19                  ADD HL,DE
0288   01ED 5E                  LD E,(HL)
0289   01EE 19                  ADD HL,DE
0290   01EF E9                  JP (HL)
0291   01F0 20 13               JR NZ,L0047
0292   01F2 0C                  INC C
0293   01F3 1E 0A               LD E,0AH
0294   01F5 37                  SCF
0295   01F6 1A                  LD A,(DE)
0296   01F7 50                  LD D,B
0297   01F8 06 9C               LD B,9CH
0298   01FA C9                  RET
0299   01FB 15                  DEC D
0300   01FC 14                  INC D
0301   01FD D3 21               OUT (21H),A
0302   01FF 28 3C               JR Z,L0048
0303   0201 AE                  XOR (HL)
0304   0202 77                  LD (HL),A
0305   0203 C9                  RET
0306   0204 2A 20 3C    L0050:  LD HL,(3C20H)
0307   0207 2B                  DEC HL
0308   0208 7E                  LD A,(HL)
0309   0209 A7                  AND A
0310   020A C8                  RET Z
0311   020B 22 20 3C            LD (3C20H),HL
0312   020E 23                  INC HL
0313   020F 77                  LD (HL),A
0314   0210 C9                  RET
0315   0211 2A 20 3C    L0058:  LD HL,(3C20H)
0316   0214 23                  INC HL
0317   0215 ED 5B 22 3C         LD DE,(3C22H)
0318   0219 A7                  AND A
0319   021A ED 52               SBC HL,DE
0320   021C C8                  RET Z
0321   021D 19                  ADD HL,DE
0322   021E 22 20 3C            LD (3C20H),HL
0323   0221 7E                  LD A,(HL)
0324   0222 2B                  DEC HL
0325   0223 77                  LD (HL),A
0326   0224 C9                  RET
0327   0225 2A 20 3C    L0053:  LD HL,(3C20H)
0328   0228 23                  INC HL
0329   0229 22 20 3C            LD (3C20H),HL
0330   022C CD 02 03    L0063:  CALL L0045
0331   022F 62                  LD H,D
0332   0230 6B                  LD L,E
0333   0231 1B                  DEC DE
0334   0232 1A                  LD A,(DE)
0335   0233 A7                  AND A
0336   0234 C8                  RET Z
0337   0235 ED 53 20 3C         LD (3C20H),DE
0338   0239 78                  LD A,B
0339   023A B1                  OR C
0340   023B 28 02               JR Z,L0049
0341   023D ED B0       L0048:  LDIR
0342   023F 2B          L0049:  DEC HL
0343   0240 36 20               LD (HL),20H
0344   0242 22 22 3C            LD (3C22H),HL
0345   0245 0C                  INC C
0346   0246 C9                  RET
0347   0247 CD 04 02            CALL L0050
0348   024A 28 08               JR Z,L0051
0349   024C 06 1F               LD B,1FH
0350   024E CD 04 02    L0052:  CALL L0050
0351   0251 10 FB               DJNZ L0052
0352   0253 C9                  RET
0353   0254 2A 1E 3C    L0051:  LD HL,(3C1EH)
0354   0257 ED 5B 24 3C         LD DE,(3C24H)
0355   025B A7                  AND A
0356   025C ED 52               SBC HL,DE
0357   025E C8                  RET Z
0358   025F CD 25 02            CALL L0053
0359   0262 2A 1E 3C            LD HL,(3C1EH)
0360   0265 11 E0 FF            LD DE,0FFE0H
0361   0268 AF                  XOR A
0362   0269 19          L0054:  ADD HL,DE
0363   026A BE                  CP (HL)
0364   026B 20 FC               JR NZ,L0054
0365   026D 22 1E 3C            LD (3C1EH),HL
0366   0270 CD F4 02            CALL L0055
0367   0273 22 20 3C            LD (3C20H),HL
0368   0276 3E A0       L0062:  LD A,0A0H
0369   0278 CD 7E 01            CALL L0056
0370   027B 2A 20 3C            LD HL,(3C20H)
0371   027E 2B                  DEC HL
0372   027F 22 20 3C            LD (3C20H),HL
0373   0282 2A 20 3C    L0035:  LD HL,(3C20H)
0374   0285 3A 28 3C            LD A,(3C28H)
0375   0288 1F                  RRA
0376   0289 36 97               LD (HL),97H
0377   028B 1F                  RRA
0378   028C 30 02               JR NC,L0057
0379   028E 36 C3               LD (HL),0C3H
0380   0290 1F          L0057:  RRA
0381   0291 D0                  RET NC
0382   0292 36 C7               LD (HL),0C7H
0383   0294 C9                  RET
0384   0295 CD 11 02            CALL L0058
0385   0298 28 08               JR Z,L0059
0386   029A 06 1F               LD B,1FH
0387   029C CD 11 02    L0060:  CALL L0058
0388   029F 10 FB               DJNZ L0060
0389   02A1 C9                  RET
0390   02A2 CD B0 02    L0059:  CALL L0041
0391   02A5 E0                  RET PO
0392   02A6 E5                  PUSH HL
0393   02A7 CD 25 02            CALL L0053
0394   02AA E1                  POP HL
0395   02AB CD ED 02            CALL L0061
0396   02AE 18 C6               JR L0062
0397   02B0 21 00 27    L0041:  LD HL,2700H
0398   02B3 ED 5B 1E 3C         LD DE,(3C1EH)
0399   02B7 A7                  AND A
0400   02B8 ED 52               SBC HL,DE
0401   02BA 44                  LD B,H
0402   02BB 4D                  LD C,L
0403   02BC EB                  EX DE,HL
0404   02BD 23                  INC HL
0405   02BE AF                  XOR A
0406   02BF ED B1               CPIR
0407   02C1 2B                  DEC HL
0408   02C2 C9                  RET
0409   02C3 2A 22 3C            LD HL,(3C22H)
0410   02C6 2B                  DEC HL
0411   02C7 22 20 3C            LD (3C20H),HL
0412   02CA CD 2C 02    L0064:  CALL L0063
0413   02CD 20 FB               JR NZ,L0064
0414   02CF C9                  RET
0415   02D0 21 28 3C            LD HL,3C28H
0416   02D3 CB EE               SET 5,(HL)
0417   02D5 CB 86               RES 0,(HL)
0418   02D7 C9                  RET
0419   02D8 21 00 27    L0103:  LD HL,2700H
0420   02DB ED 5B 24 3C         LD DE,(3C24H)
0421   02DF CD FA 07            CALL L0065
0422   02E2 21 E0 26            LD HL,26E0H
0423   02E5 22 24 3C            LD (3C24H),HL
0424   02E8 36 00               LD (HL),00H
0425   02EA 2A 24 3C    L0101:  LD HL,(3C24H)
0426   02ED 22 1E 3C    L0061:  LD (3C1EH),HL
0427   02F0 23                  INC HL
0428   02F1 22 20 3C            LD (3C20H),HL
0429   02F4 CD B0 02    L0055:  CALL L0041
0430   02F7 3E 20               LD A,20H
0431   02F9 2B          L0066:  DEC HL
0432   02FA BE                  CP (HL)
0433   02FB 28 FC               JR Z,L0066
0434   02FD 23                  INC HL
0435   02FE 22 22 3C            LD (3C22H),HL
0436   0301 C9                  RET
0437   0302 2A 22 3C    L0045:  LD HL,(3C22H)
0438   0305 ED 5B 20 3C         LD DE,(3C20H)
0439   0309 A7                  AND A
0440   030A ED 52               SBC HL,DE
0441   030C 44                  LD B,H
0442   030D 4D                  LD C,L
0443   030E 19                  ADD HL,DE
0444   030F C9                  RET
0445   0310 CD 36 03    L0027:  CALL L0067
0446   0313 47                  LD B,A
0447   0314 2A 26 3C            LD HL,(3C26H)
0448   0317 AD                  XOR L
0449   0318 28 0B               JR Z,L0068
0450   031A AD                  XOR L
0451   031B 28 03               JR Z,L0069
0452   031D AF                  XOR A
0453   031E BD                  CP L
0454   031F C0                  RET NZ
0455   0320 68          L0069:  LD L,B
0456   0321 26 20               LD H,20H
0457   0323 18 0D               JR L0070
0458   0325 25          L0068:  DEC H
0459   0326 7C                  LD A,H
0460   0327 FE 1E               CP 1EH
0461   0329 28 06               JR Z,L0071
0462   032B AF                  XOR A
0463   032C BC                  CP H
0464   032D 20 03               JR NZ,L0070
0465   032F 26 04               LD H,04H
0466   0331 7D          L0071:  LD A,L
0467   0332 22 26 3C    L0070:  LD (3C26H),HL
0468   0335 C9                  RET
0469   0336 01 FE FE    L0067:  LD BC,0FEFEH
0470   0339 ED 50               IN D,(C)
0471   033B 5A                  LD E,D
0472   033C CB 3A               SRL D
0473   033E 9F                  SBC A,A
0474   033F E6 D8               AND 0D8H
0475   0341 CB 3A               SRL D
0476   0343 38 02               JR C,L0072
0477   0345 3E 28               LD A,28H
0478   0347 C6 57       L0072:  ADD A,57H
0479   0349 6F                  LD L,A
0480   034A 7B                  LD A,E
0481   034B F6 03               OR 03H
0482   034D 1E FF               LD E,0FFH
0483   034F 2F          L0077:  CPL
0484   0350 E6 1F               AND 1FH
0485   0352 57                  LD D,A
0486   0353 28 0D               JR Z,L0073
0487   0355 7D                  LD A,L
0488   0356 1C                  INC E
0489   0357 20 12               JR NZ,L0074
0490   0359 D6 08       L0075:  SUB 08H
0491   035B CB 3A               SRL D
0492   035D 30 FA               JR NC,L0075
0493   035F 5F                  LD E,A
0494   0360 20 09               JR NZ,L0074
0495   0362 2D          L0073:  DEC L
0496   0363 CB 00               RLC B
0497   0365 30 06               JR NC,L0076
0498   0367 ED 78               IN A,(C)
0499   0369 18 E4               JR L0077
0500   036B 1E FF       L0074:  LD E,0FFH
0501   036D 7B          L0076:  LD A,E
0502   036E 3C                  INC A
0503   036F C8                  RET Z
0504   0370 21 76 03            LD HL,0376H
0505   0373 19                  ADD HL,DE
0506   0374 7E                  LD A,(HL)
0507   0375 C9                  RET
0508   0376 76                  HALT
0509   0377 68                  LD L,B
0510   0378 79                  LD A,C
0511   0379 36 35               LD (HL),35H
0512   037B 74                  LD (HL),H
0513   037C 67                  LD H,A
0514   037D 63                  LD H,E
0515   037E 62                  LD H,D
0516   037F 6A                  LD L,D
0517   0380 75                  LD (HL),L
0518   0381 37                  SCF
0519   0382 34                  INC (HL)
0520   0383 72                  LD (HL),D
0521   0384 66                  LD H,(HL)
0522   0385 78                  LD A,B
0523   0386 6E                  LD L,(HL)
0524   0387 6B                  LD L,E
0525   0388 69                  LD L,C
0526   0389 38 33               JR C,L0078
0527   038B 65                  LD H,L
0528   038C 64                  LD H,H
0529   038D 7A                  LD A,D
0530   038E 6D                  LD L,L
0531   038F 6C                  LD L,H
0532   0390 6F                  LD L,A
0533   0391 39                  ADD HL,SP
0534   0392 32 77 73            LD (7377H),A
0535   0395 00                  NOP
0536   0396 20 0D               JR NZ,L0079
0537   0398 70                  LD (HL),B
0538   0399 30 31               JR NC,L0080
0539   039B 71                  LD (HL),C
0540   039C 61                  LD H,C
0541   039D 00                  NOP
0542   039E 56                  LD D,(HL)
0543   039F 48                  LD C,B
0544   03A0 59                  LD E,C
0545   03A1 07                  RLCA
0546   03A2 01 54 47            LD BC,4754H
0547   03A5 43          L0079:  LD B,E
0548   03A6 42                  LD B,D
0549   03A7 4A                  LD C,D
0550   03A8 55                  LD D,L
0551   03A9 09                  ADD HL,BC
0552   03AA 08                  EX AF,AF'
0553   03AB 52                  LD D,D
0554   03AC 46                  LD B,(HL)
0555   03AD 58                  LD E,B
0556   03AE 4E                  LD C,(HL)
0557   03AF 4B                  LD C,E
0558   03B0 49                  LD C,C
0559   03B1 03                  INC BC
0560   03B2 33                  INC SP
0561   03B3 45                  LD B,L
0562   03B4 44                  LD B,H
0563   03B5 5A                  LD E,D
0564   03B6 4D                  LD C,L
0565   03B7 4C                  LD C,H
0566   03B8 4F                  LD C,A
0567   03B9 04                  INC B
0568   03BA 02                  LD (BC),A
0569   03BB 57                  LD D,A
0570   03BC 53                  LD D,E
0571   03BD 00                  NOP
0572   03BE 20 0D       L0078:  JR NZ,L0081
0573   03C0 50                  LD D,B
0574   03C1 05                  DEC B
0575   03C2 0A                  LD A,(BC)
0576   03C3 51                  LD D,C
0577   03C4 41                  LD B,C
0578   03C5 00                  NOP
0579   03C6 2F                  CPL
0580   03C7 5E                  LD E,(HL)
0581   03C8 5B                  LD E,E
0582   03C9 26 25               LD H,25H
0583   03CB 3E 7D               LD A,7DH
0584   03CD 3F                  CCF
0585   03CE 2A 2D 5D            LD HL,(5D2DH)
0586   03D1 27                  DAA
0587   03D2 24                  INC H
0588   03D3 3C                  INC A
0589   03D4 7B                  LD A,E
0590   03D5 60                  LD H,B
0591   03D6 2C                  INC L
0592   03D7 2B                  DEC HL
0593   03D8 7F                  LD A,A
0594   03D9 28 23               JR Z,L0082
0595   03DB 45                  LD B,L
0596   03DC 5C                  LD E,H
0597   03DD 3A 2E 3D            LD A,(3D2EH)
0598   03E0 3B                  DEC SP
0599   03E1 29                  ADD HL,HL
0600   03E2 40                  LD B,B
0601   03E3 57                  LD D,A
0602   03E4 7C                  LD A,H
0603   03E5 00                  NOP
0604   03E6 20 0D               JR NZ,L0083
0605   03E8 22 5F 21            LD (215FH),HL
0606   03EB 51                  LD D,C
0607   03EC 7E                  LD A,(HL)
0608   03ED 00                  NOP
0609   03EE 28 05       L0002:  JR Z,L0083
0610   03F0 CD 7E 01            CALL L0056
0611   03F3 D9                  EXX
0612   03F4 C9                  RET
0613   03F5 47          L0083:  LD B,A
0614   03F6 2A 29 3C            LD HL,(3C29H)
0615   03F9 7C                  LD A,H
0616   03FA B5                  OR L
0617   03FB 78                  LD A,B
0618   03FC 28 01               JR Z,L0084
0619   03FE E9          L0082:  JP (HL)
0620   03FF 2A 1C 3C    L0084:  LD HL,(3C1CH)
0621   0402 ED 5B 24 3C         LD DE,(3C24H)
0622   0406 EB                  EX DE,HL
0623   0407 37                  SCF
0624   0408 ED 52               SBC HL,DE
0625   040A EB                  EX DE,HL
0626   040B DC 21 04            CALL C,L0040
0627   040E FE 0D               CP 0DH
0628   0410 28 04               JR Z,L0085
0629   0412 77                  LD (HL),A
0630   0413 23                  INC HL
0631   0414 18 06               JR L0086
0632   0416 23          L0085:  INC HL
0633   0417 7D                  LD A,L
0634   0418 E6 1F               AND 1FH
0635   041A 20 FA               JR NZ,L0085
0636   041C 22 1C 3C    L0086:  LD (3C1CH),HL
0637   041F D9                  EXX
0638   0420 C9                  RET
0639   0421 F5          L0040:  PUSH AF
0640   0422 21 1C 3C            LD HL,3C1CH
0641   0425 CD 43 04            CALL L0043
0642   0428 F1                  POP AF
0643   0429 2A 24 3C            LD HL,(3C24H)
0644   042C 11 20 24            LD DE,2420H
0645   042F A7          L0042:  AND A
0646   0430 ED 52               SBC HL,DE
0647   0432 44                  LD B,H
0648   0433 4D                  LD C,L
0649   0434 21 E0 FF            LD HL,0FFE0H
0650   0437 19                  ADD HL,DE
0651   0438 EB                  EX DE,HL
0652   0439 ED B0               LDIR
0653   043B 06 20               LD B,20H
0654   043D 2B          L0087:  DEC HL
0655   043E 36 20               LD (HL),20H
0656   0440 10 FB               DJNZ L0087
0657   0442 C9                  RET
0658   0443 7E          L0043:  LD A,(HL)
0659   0444 D6 20               SUB 20H
0660   0446 77                  LD (HL),A
0661   0447 23                  INC HL
0662   0448 30 01               JR NC,L0088
0663   044A 35                  DEC (HL)
0664   044B 23          L0088:  INC HL
0665   044C C9                  RET
0666   044D EB                  EX DE,HL
0667   044E 5E                  LD E,(HL)
0668   044F 16 00               LD D,00H
0669   0451 21 00 3C            LD HL,3C00H
0670   0454 19                  ADD HL,DE
0671   0455 EB                  EX DE,HL
0672   0456 D7                  RST 10H
0673   0457 FD E9               JP (IY)
0674   0459 48                  LD C,B
0675   045A 45                  LD B,L
0676   045B 52                  LD D,D
0677   045C C5                  PUSH BC
0678   045D AA                  XOR D
0679   045E 00                  NOP
0680   045F 04          L0089:  INC B
0681   0460 62                  LD H,D
0682   0461 04                  INC B
0683   0462 ED 5B 37 3C         LD DE,(3C37H)
0684   0466 D7                  RST 10H
0685   0467 FD E9               JP (IY)
0686   0469 43                  LD B,E
0687   046A 4F                  LD C,A
0688   046B 4E                  LD C,(HL)
0689   046C 54                  LD D,H
0690   046D 45                  LD B,L
0691   046E 58                  LD E,B
0692   046F D4 5F 04            CALL NC,L0089
0693   0472 07          L0090:  RLCA
0694   0473 4D                  LD C,L
0695   0474 04                  INC B
0696   0475 33                  INC SP
0697   0476 43                  LD B,E
0698   0477 55                  LD D,L
0699   0478 52                  LD D,D
0700   0479 52                  LD D,D
0701   047A 45                  LD B,L
0702   047B 4E                  LD C,(HL)
0703   047C D4 72 04            CALL NC,L0090
0704   047F 07                  RLCA
0705   0480 4D                  LD C,L
0706   0481 04                  INC B
0707   0482 31 42 41            LD SP,4142H
0708   0485 53                  LD D,E
0709   0486 C5                  PUSH BC
0710   0487 7F                  LD A,A
0711   0488 04                  INC B
0712   0489 04          L0091:  INC B
0713   048A 4D                  LD C,L
0714   048B 04                  INC B
0715   048C 3F                  CCF
0716   048D 4D                  LD C,L
0717   048E 04                  INC B
0718   048F 3E 4D               LD A,4DH
0719   0491 04                  INC B
0720   0492 39                  ADD HL,SP
0721   0493 50                  LD D,B
0722   0494 41                  LD B,C
0723   0495 C4 89 04            CALL NZ,L0091
0724   0498 03                  INC BC
0725   0499 F5                  PUSH AF
0726   049A 0F                  RRCA
0727   049B 01 27 BB            LD BC,0BB27H
0728   049E 98                  SBC A,B
0729   049F 04                  INC B
0730   04A0 41                  LD B,C
0731   04A1 08                  EX AF,AF'
0732   04A2 11 B6 04            LD DE,04B6H
0733   04A5 D8                  RET C
0734   04A6 12                  LD (DE),A
0735   04A7 0A                  LD A,(BC)
0736   04A8 0E 1A               LD C,1AH
0737   04AA 21 3E 3C            LD HL,3C3EH
0738   04AD 7E                  LD A,(HL)
0739   04AE E6 BB               AND 0BBH
0740   04B0 77                  LD (HL),A
0741   04B1 FD E9               JP (IY)
0742   04B3 00                  NOP
0743   04B4 E8                  RET PE
0744   04B5 FF                  RST 38H
0745   04B6 B8                  CP B
0746   04B7 04                  INC B
0747   04B8 E1                  POP HL
0748   04B9 E1          L0018:  POP HL
0749   04BA 5E          L0241:  LD E,(HL)
0750   04BB 23                  INC HL
0751   04BC 56                  LD D,(HL)
0752   04BD 23                  INC HL
0753   04BE E5                  PUSH HL
0754   04BF EB          L0100:  EX DE,HL
0755   04C0 5E                  LD E,(HL)
0756   04C1 23                  INC HL
0757   04C2 56                  LD D,(HL)
0758   04C3 23                  INC HL
0759   04C4 EB                  EX DE,HL
0760   04C5 E9                  JP (HL)
0761   04C6 C8                  RET Z
0762   04C7 04                  INC B
0763   04C8 01 0B 00            LD BC,000BH
0764   04CB ED 5B 3B 3C         LD DE,(3C3BH)
0765   04CF 2A 37 3C            LD HL,(3C37H)
0766   04D2 09                  ADD HL,BC
0767   04D3 ED 52               SBC HL,DE
0768   04D5 38 02               JR C,L0092
0769   04D7 E7          L0165:  RST 20H
0770   04D8 02                  LD (BC),A
0771   04D9 01 00 00    L0092:  LD BC,0000H
0772   04DC CD 8C 0F            CALL L0093
0773   04DF CD E4 04            CALL L0094
0774   04E2 18 D5               JR L0018
0775   04E4 3E FE       L0094:  LD A,0FEH
0776   04E6 DB FE               IN A,(0FEH)
0777   04E8 1F                  RRA
0778   04E9 D8                  RET C
0779   04EA 3E 7F               LD A,7FH
0780   04EC DB FE               IN A,(0FEH)
0781   04EE 1F                  RRA
0782   04EF D8                  RET C
0783   04F0 E7          L0397:  RST 20H
0784   04F1 03                  INC BC
0785   04F2 CD B9 04    L0015:  CALL L0018
0786   04F5 8C                  ADC A,H
0787   04F6 05                  DEC B
0788   04F7 06 05               LD B,05H
0789   04F9 36 05               LD (HL),05H
0790   04FB 76                  HALT
0791   04FC 12                  LD (DE),A
0792   04FD F7                  RST 30H
0793   04FE FF                  RST 38H
0794   04FF 4C                  LD C,H
0795   0500 49                  LD C,C
0796   0501 4E                  LD C,(HL)
0797   0502 C5                  PUSH BC
0798   0503 A0                  AND B
0799   0504 04                  INC B
0800   0505 04                  INC B
0801   0506 C3 0E C6            JP L0095
0802   0509 04                  INC B
0803   050A 3D                  DEC A
0804   050B 06 EE               LD B,0EEH
0805   050D 08                  EX AF,AF'
0806   050E 83                  ADD A,E
0807   050F 12                  LD (DE),A
0808   0510 07                  RLCA
0809   0511 00                  NOP
0810   0512 4F                  LD C,A
0811   0513 05                  DEC B
0812   0514 76                  HALT
0813   0515 12                  LD (DE),A
0814   0516 F1                  POP AF
0815   0517 FF                  RST 38H
0816   0518 A9                  XOR C
0817   0519 06 EE               LD B,0EEH
0818   051B 08                  EX AF,AF'
0819   051C 83                  ADD A,E
0820   051D 12                  LD (DE),A
0821   051E 07                  RLCA
0822   051F 00                  NOP
0823   0520 64                  LD H,H
0824   0521 05                  DEC B
0825   0522 76                  HALT
0826   0523 12                  LD (DE),A
0827   0524 E3                  EX (SP),HL
0828   0525 FF                  RST 38H
0829   0526 1B                  DEC DE
0830   0527 06 1A               LD B,1AH
0831   0529 0C                  INC C
0832   052A 83                  ADD A,E
0833   052B 12                  LD (DE),A
0834   052C 03                  INC BC
0835   052D 00                  NOP
0836   052E B6                  OR (HL)
0837   052F 04                  INC B
0838   0530 78                  LD A,B
0839   0531 05                  DEC B
0840   0532 76                  HALT
0841   0533 12                  LD (DE),A
0842   0534 D3 FF               OUT (0FFH),A
0843   0536 38 05               JR C,L0096
0844   0538 3A 3E 3C            LD A,(3C3EH)
0845   053B CB 77               BIT 6,A
0846   053D 20 0E       L0096:  JR NZ,L0097
0847   053F CB 67               BIT 4,A
0848   0541 20 0A               JR NZ,L0097
0849   0543 CD 08 18            CALL L0023
0850   0546 20 4F               JR NZ,L0098
0851   0548 4B                  LD C,E
0852   0549 A0                  AND B
0853   054A 3E 0D               LD A,0DH
0854   054C CF                  RST 08H
0855   054D FD E9       L0097:  JP (IY)
0856   054F 51                  LD D,C
0857   0550 05                  DEC B
0858   0551 DF                  RST 18H
0859   0552 1B                  DEC DE
0860   0553 1A                  LD A,(DE)
0861   0554 2F                  CPL
0862   0555 DD A6 3E            AND (IX+3EH)
0863   0558 E6 40               AND 40H
0864   055A 13                  INC DE
0865   055B 28 04               JR Z,L0099
0866   055D D7                  RST 10H
0867   055E 11 4E 0F            LD DE,0F4EH
0868   0561 C3 BF 04    L0099:  JP L0100
0869   0564 66                  LD H,(HL)
0870   0565 05                  DEC B
0871   0566 DF                  RST 18H
0872   0567 DD CB 3E 76         BIT 6,(IX+3EH)
0873   056B 20 F4               JR NZ,L0099
0874   056D FD E9               JP (IY)
0875   056F 52                  LD D,D
0876   0570 45                  LD B,L
0877   0571 54                  LD D,H
0878   0572 59                  LD E,C
0879   0573 50                  LD D,B
0880   0574 C5                  PUSH BC
0881   0575 8B                  ADC A,E
0882   0576 05                  DEC B
0883   0577 06 7A       L0105:  LD B,7AH
0884   0579 05                  DEC B
0885   057A CD EA 02            CALL L0101
0886   057D CD 76 02            CALL L0062
0887   0580 36 BF               LD (HL),0BFH
0888   0582 18 10               JR L0102
0889   0584 51                  LD D,C
0890   0585 55                  LD D,L
0891   0586 45                  LD B,L
0892   0587 52                  LD D,D
0893   0588 D9                  EXX
0894   0589 05                  DEC B
0895   058A 05                  DEC B
0896   058B 05                  DEC B
0897   058C 8E                  ADC A,(HL)
0898   058D 05                  DEC B
0899   058E CD D8 02            CALL L0103
0900   0591 CD 76 02            CALL L0062
0901   0594 21 28 3C    L0102:  LD HL,3C28H
0902   0597 CB C6       L0098:  SET 0,(HL)
0903   0599 CB AE               RES 5,(HL)
0904   059B CB 6E       L0104:  BIT 5,(HL)
0905   059D 28 FC               JR Z,L0104
0906   059F CD 25 02            CALL L0053
0907   05A2 FD E9               JP (IY)
0908   05A4 57                  LD D,A
0909   05A5 4F                  LD C,A
0910   05A6 52                  LD D,D
0911   05A7 C4 77 05            CALL NZ,L0105
0912   05AA 04          L0116:  INC B
0913   05AB AD                  XOR L
0914   05AC 05                  DEC B
0915   05AD DF                  RST 18H
0916   05AE 21 FE 27            LD HL,27FEH
0917   05B1 06 FD               LD B,0FDH
0918   05B3 36 20       L0106:  LD (HL),20H
0919   05B5 2B                  DEC HL
0920   05B6 10 FB               DJNZ L0106
0921   05B8 D5                  PUSH DE
0922   05B9 EB                  EX DE,HL
0923   05BA D7                  RST 10H
0924   05BB D1                  POP DE
0925   05BC CD E1 05            CALL L0107
0926   05BF 04                  INC B
0927   05C0 05                  DEC B
0928   05C1 28 03               JR Z,L0108
0929   05C3 01 FF 00            LD BC,00FFH
0930   05C6 21 01 27    L0108:  LD HL,2701H
0931   05C9 71                  LD (HL),C
0932   05CA 23                  INC HL
0933   05CB 3E FC               LD A,0FCH
0934   05CD B9                  CP C
0935   05CE 30 01               JR NC,L0109
0936   05D0 4F                  LD C,A
0937   05D1 0C          L0109:  INC C
0938   05D2 D5                  PUSH DE
0939   05D3 C5                  PUSH BC
0940   05D4 EB                  EX DE,HL
0941   05D5 ED B0               LDIR
0942   05D7 C1                  POP BC
0943   05D8 D1                  POP DE
0944   05D9 0D                  DEC C
0945   05DA CD DA 07            CALL L0110
0946   05DD FD E9               JP (IY)
0947   05DF 1E 20               LD E,20H
0948   05E1 2A 24 3C    L0107:  LD HL,(3C24H)
0949   05E4 22 1E 3C            LD (3C1EH),HL
0950   05E7 01 00 00            LD BC,0000H
0951   05EA 23          L0111:  INC HL
0952   05EB 7E                  LD A,(HL)
0953   05EC BB                  CP E
0954   05ED 28 FB               JR Z,L0111
0955   05EF A7                  AND A
0956   05F0 28 0E               JR Z,L0112
0957   05F2 E5                  PUSH HL
0958   05F3 03          L0114:  INC BC
0959   05F4 23                  INC HL
0960   05F5 7E                  LD A,(HL)
0961   05F6 A7                  AND A
0962   05F7 28 03               JR Z,L0113
0963   05F9 BB                  CP E
0964   05FA 20 F7               JR NZ,L0114
0965   05FC D1          L0113:  POP DE
0966   05FD AF                  XOR A
0967   05FE B8                  CP B
0968   05FF C9                  RET
0969   0600 D5          L0112:  PUSH DE
0970   0601 CD B0 02            CALL L0041
0971   0604 E2 14 06            JP PO,L0115
0972   0607 ED 5B 24 3C         LD DE,(3C24H)
0973   060B CD FA 07            CALL L0065
0974   060E 22 24 3C            LD (3C24H),HL
0975   0611 D1                  POP DE
0976   0612 18 CD               JR L0107
0977   0614 EB          L0115:  EX DE,HL
0978   0615 C1                  POP BC
0979   0616 01 00 00            LD BC,0000H
0980   0619 37                  SCF
0981   061A C9                  RET
0982   061B 1D                  DEC E
0983   061C 06 CD               LD B,0CDH
0984   061E DF                  RST 18H
0985   061F 05                  DEC B
0986   0620 50                  LD D,B
0987   0621 59                  LD E,C
0988   0622 D7                  RST 10H
0989   0623 FD E9               JP (IY)
0990   0625 56                  LD D,(HL)
0991   0626 4C                  LD C,H
0992   0627 49                  LD C,C
0993   0628 53                  LD D,E
0994   0629 D4 AA 05            CALL NC,L0116
0995   062C 05          L0118:  DEC B
0996   062D 2F                  CPL
0997   062E 06 3E               LD B,3EH
0998   0630 0D                  DEC C
0999   0631 CF                  RST 08H
1000   0632 0E 00               LD C,00H
1001   0634 18 0E               JR L0117
1002   0636 46                  LD B,(HL)
1003   0637 49                  LD C,C
1004   0638 4E                  LD C,(HL)
1005   0639 C4 2C 06            CALL NZ,L0118
1006   063C 04                  INC B
1007   063D 3F                  CCF
1008   063E 06 CD               LD B,0CDH
1009   0640 DF                  RST 18H
1010   0641 05                  DEC B
1011   0642 38 46               JR C,L0119
1012   0644 2A 33 3C    L0117:  LD HL,(3C33H)
1013   0647 7E                  LD A,(HL)
1014   0648 23                  INC HL
1015   0649 66                  LD H,(HL)
1016   064A 6F                  LD L,A
1017   064B 7E          L0127:  LD A,(HL)
1018   064C E6 3F               AND 3FH
1019   064E 28 2F               JR Z,L0120
1020   0650 A9                  XOR C
1021   0651 28 04               JR Z,L0121
1022   0653 79                  LD A,C
1023   0654 A7                  AND A
1024   0655 20 28               JR NZ,L0120
1025   0657 D5          L0121:  PUSH DE
1026   0658 E5                  PUSH HL
1027   0659 CD E8 15            CALL L0122
1028   065C B1                  OR C
1029   065D 28 17               JR Z,L0123
1030   065F 41                  LD B,C
1031   0660 1A          L0125:  LD A,(DE)
1032   0661 CD 07 08            CALL L0030
1033   0664 13                  INC DE
1034   0665 AE                  XOR (HL)
1035   0666 E6 7F               AND 7FH
1036   0668 23                  INC HL
1037   0669 20 12               JR NZ,L0124
1038   066B 10 F3               DJNZ L0125
1039   066D D1                  POP DE
1040   066E 13                  INC DE
1041   066F D7                  RST 10H
1042   0670 D1                  POP DE
1043   0671 CD DA 07            CALL L0110
1044   0674 FD E9               JP (IY)
1045   0676 CD FB 17    L0123:  CALL L0126
1046   0679 76                  HALT
1047   067A CD E4 04            CALL L0094
1048   067D E1          L0124:  POP HL
1049   067E D1                  POP DE
1050   067F 2B          L0120:  DEC HL
1051   0680 7E                  LD A,(HL)
1052   0681 2B                  DEC HL
1053   0682 6E                  LD L,(HL)
1054   0683 67                  LD H,A
1055   0684 B5                  OR L
1056   0685 20 C4               JR NZ,L0127
1057   0687 C3 8A 06            JP L0119
1058   068A 11 00 00    L0119:  LD DE,0000H
1059   068D D7                  RST 10H
1060   068E FD E9               JP (IY)
1061   0690 45                  LD B,L
1062   0691 58                  LD E,B
1063   0692 45                  LD B,L
1064   0693 43                  LD B,E
1065   0694 55                  LD D,L
1066   0695 54                  LD D,H
1067   0696 C5                  PUSH BC
1068   0697 3C                  INC A
1069   0698 06 07               LD B,07H
1070   069A 9C                  SBC A,H
1071   069B 06 DF               LD B,0DFH
1072   069D C3 BF 04            JP L0100
1073   06A0 4E                  LD C,(HL)
1074   06A1 55                  LD D,L
1075   06A2 4D                  LD C,L
1076   06A3 42                  LD B,D
1077   06A4 45                  LD B,L
1078   06A5 D2 99 06            JP NC,L0128
1079   06A8 06 AB       L0147:  LD B,0ABH
1080   06AA 06 CD               LD B,0CDH
1081   06AC DF                  RST 18H
1082   06AD 05                  DEC B
1083   06AE 38 DA               JR C,L0119
1084   06B0 C5                  PUSH BC
1085   06B1 D5                  PUSH DE
1086   06B2 CD 4C 07            CALL L0129
1087   06B5 20 05               JR NZ,L0130
1088   06B7 11 06 10            LD DE,1006H
1089   06BA 18 58               JR L0131
1090   06BC DF          L0130:  RST 18H
1091   06BD 11 00 00            LD DE,0000H
1092   06C0 D7                  RST 10H
1093   06C1 11 00 45            LD DE,4500H
1094   06C4 C1                  POP BC
1095   06C5 C5                  PUSH BC
1096   06C6 0A                  LD A,(BC)
1097   06C7 FE 2D               CP 2DH
1098   06C9 20 03               JR NZ,L0132
1099   06CB 16 C5               LD D,0C5H
1100   06CD 03                  INC BC
1101   06CE D7          L0132:  RST 10H
1102   06CF 50                  LD D,B
1103   06D0 59                  LD E,C
1104   06D1 2B                  DEC HL
1105   06D2 2B                  DEC HL
1106   06D3 CD 23 07    L0134:  CALL L0133
1107   06D6 23                  INC HL
1108   06D7 34                  INC (HL)
1109   06D8 2B                  DEC HL
1110   06D9 30 F8               JR NC,L0134
1111   06DB FE FE               CP 0FEH
1112   06DD 20 3D               JR NZ,L0135
1113   06DF CD 23 07    L0136:  CALL L0133
1114   06E2 30 FB               JR NC,L0136
1115   06E4 C6 30               ADD A,30H
1116   06E6 CD 7B 07            CALL L0137
1117   06E9 20 04               JR NZ,L0138
1118   06EB 1E 00               LD E,00H
1119   06ED 18 0E               JR L0139
1120   06EF E6 DF       L0138:  AND 0DFH
1121   06F1 FE 45               CP 45H
1122   06F3 20 27               JR NZ,L0135
1123   06F5 E5                  PUSH HL
1124   06F6 CD 4C 07            CALL L0129
1125   06F9 DF                  RST 18H
1126   06FA E1                  POP HL
1127   06FB 20 1F               JR NZ,L0135
1128   06FD CD 40 07    L0139:  CALL L0140
1129   0700 28 0F               JR Z,L0141
1130   0702 23                  INC HL
1131   0703 7E                  LD A,(HL)
1132   0704 E6 7F               AND 7FH
1133   0706 83                  ADD A,E
1134   0707 FA 1C 07            JP M,L0135
1135   070A 28 10               JR Z,L0135
1136   070C AE                  XOR (HL)
1137   070D E6 7F               AND 7FH
1138   070F AE                  XOR (HL)
1139   0710 77                  LD (HL),A
1140   0711 11 55 10    L0141:  LD DE,1055H
1141   0714 D7          L0131:  RST 10H
1142   0715 D1                  POP DE
1143   0716 C1                  POP BC
1144   0717 CD DA 07            CALL L0110
1145   071A FD E9               JP (IY)
1146   071C E1          L0135:  POP HL
1147   071D E1                  POP HL
1148   071E DF                  RST 18H
1149   071F DF                  RST 18H
1150   0720 C3 8A 06            JP L0119
1151   0723 1A          L0133:  LD A,(DE)
1152   0724 13                  INC DE
1153   0725 D6 30               SUB 30H
1154   0727 D8                  RET C
1155   0728 FE 0A               CP 0AH
1156   072A 3F                  CCF
1157   072B D8                  RET C
1158   072C 4F          L0143:  LD C,A
1159   072D 7E                  LD A,(HL)
1160   072E E6 F0               AND 0F0H
1161   0730 C0                  RET NZ
1162   0731 79                  LD A,C
1163   0732 2B          L0184:  DEC HL
1164   0733 2B                  DEC HL
1165   0734 0E 03               LD C,03H
1166   0736 ED 6F       L0142:  RLD
1167   0738 23                  INC HL
1168   0739 0D                  DEC C
1169   073A 20 FA               JR NZ,L0142
1170   073C 35                  DEC (HL)
1171   073D 2B                  DEC HL
1172   073E BF                  CP A
1173   073F C9                  RET
1174   0740 06 06       L0140:  LD B,06H
1175   0742 AF          L0144:  XOR A
1176   0743 CD 2C 07            CALL L0143
1177   0746 C0                  RET NZ
1178   0747 10 F9               DJNZ L0144
1179   0749 23                  INC HL
1180   074A 70                  LD (HL),B
1181   074B C9                  RET
1182   074C D7          L0129:  RST 10H
1183   074D CD B9 04            CALL L0018
1184   0750 6B                  LD L,E
1185   0751 08                  EX AF,AF'
1186   0752 96                  SUB (HL)
1187   0753 08                  EX AF,AF'
1188   0754 4B                  LD C,E
1189   0755 10 2D               DJNZ L0145
1190   0757 4A                  LD C,D
1191   0758 0C                  INC C
1192   0759 6B                  LD L,E
1193   075A 08                  EX AF,AF'
1194   075B A9                  XOR C
1195   075C 0D                  DEC C
1196   075D D2 08 D2            JP NC,L0146
1197   0760 0D                  DEC C
1198   0761 1F                  RRA
1199   0762 0E 88               LD C,88H
1200   0764 06 88               LD B,88H
1201   0766 06 FF               LD B,0FFH
1202   0768 08                  EX AF,AF'
1203   0769 8A                  ADC A,D
1204   076A 07                  RLCA
1205   076B FF                  RST 38H
1206   076C 08                  EX AF,AF'
1207   076D DF                  RST 18H
1208   076E 08                  EX AF,AF'
1209   076F 94                  SUB H
1210   0770 0D                  DEC C
1211   0771 FF                  RST 38H
1212   0772 08                  EX AF,AF'
1213   0773 79                  LD A,C
1214   0774 08                  EX AF,AF'
1215   0775 85                  ADD A,L
1216   0776 08                  EX AF,AF'
1217   0777 0E 1A               LD C,1AH
1218   0779 DF                  RST 18H
1219   077A 1A                  LD A,(DE)
1220   077B FE 20       L0137:  CP 20H
1221   077D C8                  RET Z
1222   077E A7                  AND A
1223   077F C9                  RET
1224   0780 43                  LD B,E
1225   0781 4F                  LD C,A
1226   0782 4E                  LD C,(HL)
1227   0783 56                  LD D,(HL)
1228   0784 45          L0145:  LD B,L
1229   0785 52                  LD D,D
1230   0786 D4 A8 06            CALL NC,L0147
1231   0789 07                  RLCA
1232   078A C3 0E 09            JP L0148
1233   078D 0E 6B               LD C,6BH
1234   078F 08                  EX AF,AF'
1235   0790 D2 08 96            JP NC,L0149
1236   0793 08                  EX AF,AF'
1237   0794 B8                  CP B
1238   0795 07                  RLCA
1239   0796 83                  ADD A,E
1240   0797 12                  LD (DE),A
1241   0798 1B                  DEC DE
1242   0799 00                  NOP
1243   079A 85                  ADD A,L
1244   079B 08                  EX AF,AF'
1245   079C 8A                  ADC A,D
1246   079D 04                  INC B
1247   079E 96                  SUB (HL)
1248   079F 08                  EX AF,AF'
1249   07A0 A8                  XOR B
1250   07A1 0C                  INC C
1251   07A2 79                  LD A,C
1252   07A3 08                  EX AF,AF'
1253   07A4 FF                  RST 38H
1254   07A5 08                  EX AF,AF'
1255   07A6 8A                  ADC A,D
1256   07A7 04                  INC B
1257   07A8 96                  SUB (HL)
1258   07A9 08                  EX AF,AF'
1259   07AA A8                  XOR B
1260   07AB 0C                  INC C
1261   07AC EE 0D               XOR 0DH
1262   07AE DF                  RST 18H
1263   07AF 08                  EX AF,AF'
1264   07B0 76                  HALT
1265   07B1 12                  LD (DE),A
1266   07B2 D9                  EXX
1267   07B3 FF                  RST 38H
1268   07B4 DF                  RST 18H
1269   07B5 08                  EX AF,AF'
1270   07B6 B6                  OR (HL)
1271   07B7 04                  INC B
1272   07B8 BA                  CP D
1273   07B9 07                  RLCA
1274   07BA DF                  RST 18H
1275   07BB 7B                  LD A,E
1276   07BC CD 07 08            CALL L0030
1277   07BF C6 D0               ADD A,0D0H
1278   07C1 30 14               JR NC,L0150
1279   07C3 FE 0A               CP 0AH
1280   07C5 38 06               JR C,L0151
1281   07C7 C6 EF               ADD A,0EFH
1282   07C9 30 0C               JR NC,L0150
1283   07CB C6 0A               ADD A,0AH
1284   07CD DD BE 3F    L0151:  CP (IX+3FH)
1285   07D0 30 05               JR NC,L0150
1286   07D2 16 00               LD D,00H
1287   07D4 5F                  LD E,A
1288   07D5 D7                  RST 10H
1289   07D6 37                  SCF
1290   07D7 C3 21 0C    L0150:  JP L0152
1291   07DA 62          L0110:  LD H,D
1292   07DB 6B                  LD L,E
1293   07DC 03                  INC BC
1294   07DD 09                  ADD HL,BC
1295   07DE E5                  PUSH HL
1296   07DF DD CB 3E 66         BIT 4,(IX+3EH)
1297   07E3 CC 7F 09            CALL Z,L0153
1298   07E6 CD B0 02            CALL L0041
1299   07E9 D1                  POP DE
1300   07EA A7                  AND A
1301   07EB ED 52               SBC HL,DE
1302   07ED 44                  LD B,H
1303   07EE 4D                  LD C,L
1304   07EF 2A 1E 3C            LD HL,(3C1EH)
1305   07F2 23                  INC HL
1306   07F3 EB                  EX DE,HL
1307   07F4 38 05               JR C,L0154
1308   07F6 28 02               JR Z,L0065
1309   07F8 ED B0               LDIR
1310   07FA A7          L0065:  AND A
1311   07FB ED 52       L0154:  SBC HL,DE
1312   07FD EB                  EX DE,HL
1313   07FE 7A          L0155:  LD A,D
1314   07FF B3                  OR E
1315   0800 C8                  RET Z
1316   0801 36 20               LD (HL),20H
1317   0803 23                  INC HL
1318   0804 1B                  DEC DE
1319   0805 18 F7               JR L0155
1320   0807 E6 7F       L0030:  AND 7FH
1321   0809 FE 61               CP 61H
1322   080B D8                  RET C
1323   080C FE 7B               CP 7BH
1324   080E D0                  RET NC
1325   080F E6 5F               AND 5FH
1326   0811 C9                  RET
1327   0812 56                  LD D,(HL)
1328   0813 49                  LD C,C
1329   0814 D3 89               OUT (89H),A
1330   0816 07                  RLCA
1331   0817 03                  INC BC
1332   0818 1A                  LD A,(DE)
1333   0819 08                  EX AF,AF'
1334   081A DD CB 3E A6         RES 4,(IX+3EH)
1335   081E FD E9               JP (IY)
1336   0820 49                  LD C,C
1337   0821 4E                  LD C,(HL)
1338   0822 56                  LD D,(HL)
1339   0823 49                  LD C,C
1340   0824 D3 17               OUT (17H),A
1341   0826 08                  EX AF,AF'
1342   0827 05          L0156:  DEC B
1343   0828 2A 08 DD            LD HL,(0DD08H)
1344   082B CB 3E               SRL (HL)
1345   082D E6 FD               AND 0FDH
1346   082F E9                  JP (HL)
1347   0830 46                  LD B,(HL)
1348   0831 41                  LD B,C
1349   0832 53                  LD D,E
1350   0833 D4 27 08            CALL NC,L0156
1351   0836 04                  INC B
1352   0837 39                  ADD HL,SP
1353   0838 08                  EX AF,AF'
1354   0839 FD 21 B9 04         LD IY,04B9H
1355   083D FD E9               JP (IY)
1356   083F 53                  LD D,E
1357   0840 4C                  LD C,H
1358   0841 4F                  LD C,A
1359   0842 D7                  RST 10H
1360   0843 36 08               LD (HL),08H
1361   0845 04                  INC B
1362   0846 48                  LD C,B
1363   0847 08                  EX AF,AF'
1364   0848 FD 21 C8 04         LD IY,04C8H
1365   084C FD E9               JP (IY)
1366   084E 2A 3B 3C    L0157:  LD HL,(3C3BH)
1367   0851 2B                  DEC HL
1368   0852 46                  LD B,(HL)
1369   0853 2B                  DEC HL
1370   0854 4E                  LD C,(HL)
1371   0855 22 3B 3C            LD (3C3BH),HL
1372   0858 C9                  RET
1373   0859 2B          L0004:  DEC HL
1374   085A 5E                  LD E,(HL)
1375   085B 22 3B 3C            LD (3C3BH),HL
1376   085E C9                  RET
1377   085F 72          L0003:  LD (HL),D
1378   0860 23                  INC HL
1379   0861 22 3B 3C            LD (3C3BH),HL
1380   0864 C9                  RET
1381   0865 44                  LD B,H
1382   0866 55                  LD D,L
1383   0867 D0                  RET NC
1384   0868 45                  LD B,L
1385   0869 08                  EX AF,AF'
1386   086A 03                  INC BC
1387   086B 6D                  LD L,L
1388   086C 08                  EX AF,AF'
1389   086D DF                  RST 18H
1390   086E D7                  RST 10H
1391   086F D7                  RST 10H
1392   0870 FD E9               JP (IY)
1393   0872 44                  LD B,H
1394   0873 52                  LD D,D
1395   0874 4F                  LD C,A
1396   0875 D0                  RET NC
1397   0876 6A                  LD L,D
1398   0877 08                  EX AF,AF'
1399   0878 04                  INC B
1400   0879 7B                  LD A,E
1401   087A 08                  EX AF,AF'
1402   087B DF                  RST 18H
1403   087C FD E9               JP (IY)
1404   087E 53                  LD D,E
1405   087F 57                  LD D,A
1406   0880 41                  LD B,C
1407   0881 D0                  RET NC
1408   0882 78                  LD A,B
1409   0883 08                  EX AF,AF'
1410   0884 04                  INC B
1411   0885 87                  ADD A,A
1412   0886 08                  EX AF,AF'
1413   0887 DF                  RST 18H
1414   0888 CD 4E 08            CALL L0157
1415   088B D7                  RST 10H
1416   088C 50                  LD D,B
1417   088D 59                  LD E,C
1418   088E D7                  RST 10H
1419   088F FD E9               JP (IY)
1420   0891 43                  LD B,E
1421   0892 C0                  RET NZ
1422   0893 84                  ADD A,H
1423   0894 08                  EX AF,AF'
1424   0895 02                  LD (BC),A
1425   0896 98                  SBC A,B
1426   0897 08                  EX AF,AF'
1427   0898 DF                  RST 18H
1428   0899 1A                  LD A,(DE)
1429   089A 5F                  LD E,A
1430   089B 16 00               LD D,00H
1431   089D D7                  RST 10H
1432   089E FD E9               JP (IY)
1433   08A0 43                  LD B,E
1434   08A1 A1                  AND C
1435   08A2 95                  SUB L
1436   08A3 08                  EX AF,AF'
1437   08A4 02                  LD (BC),A
1438   08A5 A7                  AND A
1439   08A6 08                  EX AF,AF'
1440   08A7 DF                  RST 18H
1441   08A8 CD 4E 08            CALL L0157
1442   08AB 79                  LD A,C
1443   08AC 12                  LD (DE),A
1444   08AD FD E9               JP (IY)
1445   08AF C0                  RET NZ
1446   08B0 A4                  AND H
1447   08B1 08                  EX AF,AF'
1448   08B2 01 B5 08            LD BC,08B5H
1449   08B5 DF                  RST 18H
1450   08B6 EB                  EX DE,HL
1451   08B7 5E                  LD E,(HL)
1452   08B8 23                  INC HL
1453   08B9 56                  LD D,(HL)
1454   08BA D7                  RST 10H
1455   08BB FD E9               JP (IY)
1456   08BD A1                  AND C
1457   08BE B2                  OR D
1458   08BF 08                  EX AF,AF'
1459   08C0 01 C3 08            LD BC,08C3H
1460   08C3 DF                  RST 18H
1461   08C4 CD 4E 08            CALL L0157
1462   08C7 EB                  EX DE,HL
1463   08C8 71                  LD (HL),C
1464   08C9 23                  INC HL
1465   08CA 70                  LD (HL),B
1466   08CB FD E9               JP (IY)
1467   08CD 3E D2               LD A,0D2H
1468   08CF C0                  RET NZ
1469   08D0 08                  EX AF,AF'
1470   08D1 02                  LD (BC),A
1471   08D2 D4 08 DF            CALL NC,L0158
1472   08D5 C1                  POP BC
1473   08D6 D5                  PUSH DE
1474   08D7 C5                  PUSH BC
1475   08D8 FD E9               JP (IY)
1476   08DA 52                  LD D,D
1477   08DB BE                  CP (HL)
1478   08DC D1                  POP DE
1479   08DD 08                  EX AF,AF'
1480   08DE 02                  LD (BC),A
1481   08DF E1                  POP HL
1482   08E0 08                  EX AF,AF'
1483   08E1 C1                  POP BC
1484   08E2 D1                  POP DE
1485   08E3 C5                  PUSH BC
1486   08E4 D7                  RST 10H
1487   08E5 FD E9               JP (IY)
1488   08E7 3F                  CCF
1489   08E8 44                  LD B,H
1490   08E9 55                  LD D,L
1491   08EA D0                  RET NC
1492   08EB DE 08               SBC A,08H
1493   08ED 04          L0160:  INC B
1494   08EE F0                  RET P
1495   08EF 08                  EX AF,AF'
1496   08F0 DF                  RST 18H
1497   08F1 D7                  RST 10H
1498   08F2 7A                  LD A,D
1499   08F3 B3                  OR E
1500   08F4 C4 10 00            CALL NZ,L0159
1501   08F7 FD E9               JP (IY)
1502   08F9 52                  LD D,D
1503   08FA 4F                  LD C,A
1504   08FB D4 ED 08            CALL NC,L0160
1505   08FE 03          L0162:  INC BC
1506   08FF C3 0E D2            JP L0161
1507   0902 08                  EX AF,AF'
1508   0903 85                  ADD A,L
1509   0904 08                  EX AF,AF'
1510   0905 DF                  RST 18H
1511   0906 08                  EX AF,AF'
1512   0907 85                  ADD A,L
1513   0908 08                  EX AF,AF'
1514   0909 B6                  OR (HL)
1515   090A 04                  INC B
1516   090B 4F                  LD C,A
1517   090C 56                  LD D,(HL)
1518   090D 45                  LD B,L
1519   090E D2 FE 08    L0148:  JP NC,L0162
1520   0911 04                  INC B
1521   0912 C3 0E D2            JP L0161
1522   0915 08                  EX AF,AF'
1523   0916 6B                  LD L,E
1524   0917 08                  EX AF,AF'
1525   0918 DF                  RST 18H
1526   0919 08                  EX AF,AF'
1527   091A 85                  ADD A,L
1528   091B 08                  EX AF,AF'
1529   091C B6                  OR (HL)
1530   091D 04                  INC B
1531   091E 50                  LD D,B
1532   091F 49                  LD C,C
1533   0920 43                  LD B,E
1534   0921 CB 11               RL C
1535   0923 09                  ADD HL,BC
1536   0924 04          L0164:  INC B
1537   0925 27                  DAA
1538   0926 09                  ADD HL,BC
1539   0927 CD 4D 09            CALL L0163
1540   092A FD E9               JP (IY)
1541   092C 52                  LD D,D
1542   092D 4F                  LD C,A
1543   092E 4C                  LD C,H
1544   092F CC 24 09            CALL Z,L0164
1545   0932 04                  INC B
1546   0933 35                  DEC (HL)
1547   0934 09                  ADD HL,BC
1548   0935 CD 4D 09            CALL L0163
1549   0938 EB                  EX DE,HL
1550   0939 2A 37 3C            LD HL,(3C37H)
1551   093C ED 52               SBC HL,DE
1552   093E D2 D7 04            JP NC,L0165
1553   0941 62                  LD H,D
1554   0942 6B                  LD L,E
1555   0943 23                  INC HL
1556   0944 23                  INC HL
1557   0945 ED B0               LDIR
1558   0947 ED 53 3B 3C         LD (3C3BH),DE
1559   094B FD E9               JP (IY)
1560   094D CD 4E 08    L0163:  CALL L0157
1561   0950 0B                  DEC BC
1562   0951 CB 21               SLA C
1563   0953 CB 10               RL B
1564   0955 03                  INC BC
1565   0956 03                  INC BC
1566   0957 30 02               JR NC,L0166
1567   0959 E7                  RST 20H
1568   095A 07                  RLCA
1569   095B 2A 3B 3C    L0166:  LD HL,(3C3BH)
1570   095E ED 42               SBC HL,BC
1571   0960 E5                  PUSH HL
1572   0961 5E                  LD E,(HL)
1573   0962 23                  INC HL
1574   0963 56                  LD D,(HL)
1575   0964 D7                  RST 10H
1576   0965 E1                  POP HL
1577   0966 C9                  RET
1578   0967 54                  LD D,H
1579   0968 59                  LD E,C
1580   0969 50                  LD D,B
1581   096A C5                  PUSH BC
1582   096B 32 09 04            LD (0409H),A
1583   096E 70                  LD (HL),B
1584   096F 09                  ADD HL,BC
1585   0970 CD 4E 08            CALL L0157
1586   0973 DF                  RST 18H
1587   0974 CD 7F 09            CALL L0153
1588   0977 FD E9               JP (IY)
1589   0979 1A          L0313:  LD A,(DE)
1590   097A 4F                  LD C,A
1591   097B 13                  INC DE
1592   097C 1A                  LD A,(DE)
1593   097D 47                  LD B,A
1594   097E 13                  INC DE
1595   097F 78          L0153:  LD A,B
1596   0980 B1                  OR C
1597   0981 C8                  RET Z
1598   0982 1A                  LD A,(DE)
1599   0983 13                  INC DE
1600   0984 0B                  DEC BC
1601   0985 CF                  RST 08H
1602   0986 18 F7               JR L0153
1603   0988 3C                  INC A
1604   0989 A3                  AND E
1605   098A 6D                  LD L,L
1606   098B 09                  ADD HL,BC
1607   098C 02                  LD (BC),A
1608   098D 8F                  ADC A,A
1609   098E 09                  ADD HL,BC
1610   098F 21 FF 27            LD HL,27FFH
1611   0992 22 1A 3C            LD (3C1AH),HL
1612   0995 FD E9               JP (IY)
1613   0997 23                  INC HL
1614   0998 BE                  CP (HL)
1615   0999 8C                  ADC A,H
1616   099A 09                  ADD HL,BC
1617   099B 02                  LD (BC),A
1618   099C 9E                  SBC A,(HL)
1619   099D 09                  ADD HL,BC
1620   099E DF                  RST 18H
1621   099F DF                  RST 18H
1622   09A0 ED 5B 1A 3C         LD DE,(3C1AH)
1623   09A4 D7                  RST 10H
1624   09A5 21 FF 27            LD HL,27FFH
1625   09A8 A7                  AND A
1626   09A9 ED 52               SBC HL,DE
1627   09AB EB                  EX DE,HL
1628   09AC D7                  RST 10H
1629   09AD FD E9               JP (IY)
1630   09AF AE                  XOR (HL)
1631   09B0 49                  LD C,C
1632   09B1 0A                  LD A,(BC)
1633   09B2 01 C3 0E            LD BC,0EC3H
1634   09B5 8D                  ADC A,L
1635   09B6 09                  ADD HL,BC
1636   09B7 6B                  LD L,E
1637   09B8 08                  EX AF,AF'
1638   09B9 0D                  DEC C
1639   09BA 0C                  INC C
1640   09BB 88                  ADC A,B
1641   09BC 06 E1               LD B,0E1H
1642   09BE 09                  ADD HL,BC
1643   09BF FF                  RST 38H
1644   09C0 08                  EX AF,AF'
1645   09C1 4A                  LD C,D
1646   09C2 0A                  LD A,(BC)
1647   09C3 9C                  SBC A,H
1648   09C4 09                  ADD HL,BC
1649   09C5 6E                  LD L,(HL)
1650   09C6 09                  ADD HL,BC
1651   09C7 73                  LD (HL),E
1652   09C8 0A                  LD A,(BC)
1653   09C9 B6                  OR (HL)
1654   09CA 04                  INC B
1655   09CB 55                  LD D,L
1656   09CC AE                  XOR (HL)
1657   09CD B2                  OR D
1658   09CE 09                  ADD HL,BC
1659   09CF 02                  LD (BC),A
1660   09D0 C3 0E 88            JP L0167
1661   09D3 06 8D               LD B,8DH
1662   09D5 09                  ADD HL,BC
1663   09D6 E1                  POP HL
1664   09D7 09                  ADD HL,BC
1665   09D8 76                  HALT
1666   09D9 12                  LD (DE),A
1667   09DA E8                  RET PE
1668   09DB FF                  RST 38H
1669   09DC 23                  INC HL
1670   09DD D3 CF               OUT (0CFH),A
1671   09DF 09                  ADD HL,BC
1672   09E0 02                  LD (BC),A
1673   09E1 C3 0E F7            JP L0168
1674   09E4 09                  ADD HL,BC
1675   09E5 12                  LD (DE),A
1676   09E6 09                  ADD HL,BC
1677   09E7 12                  LD (DE),A
1678   09E8 09                  ADD HL,BC
1679   09E9 36 0E               LD (HL),0EH
1680   09EB 1A                  LD A,(DE)
1681   09EC 0C                  INC C
1682   09ED 8D                  ADC A,L
1683   09EE 12                  LD (DE),A
1684   09EF F3                  DI
1685   09F0 FF                  RST 38H
1686   09F1 B6                  OR (HL)
1687   09F2 04                  INC B
1688   09F3 A3                  AND E
1689   09F4 E0                  RET PO
1690   09F5 09                  ADD HL,BC
1691   09F6 01 C3 0E            LD BC,0EC3H
1692   09F9 8A                  ADC A,D
1693   09FA 04                  INC B
1694   09FB 96                  SUB (HL)
1695   09FC 08                  EX AF,AF'
1696   09FD C4 0C FF            CALL NZ,L0169
1697   0A00 08                  EX AF,AF'
1698   0A01 07                  RLCA
1699   0A02 0A                  LD A,(BC)
1700   0A03 5C                  LD E,H
1701   0A04 0A                  LD A,(BC)
1702   0A05 B6                  OR (HL)
1703   0A06 04                  INC B
1704   0A07 09                  ADD HL,BC
1705   0A08 0A                  LD A,(BC)
1706   0A09 DF                  RST 18H
1707   0A0A 7B                  LD A,E
1708   0A0B C6 30               ADD A,30H
1709   0A0D FE 3A               CP 3AH
1710   0A0F 38 02               JR C,L0170
1711   0A11 C6 07               ADD A,07H
1712   0A13 5F          L0170:  LD E,A
1713   0A14 D7                  RST 10H
1714   0A15 FD E9               JP (IY)
1715   0A17 43                  LD B,E
1716   0A18 4C                  LD C,H
1717   0A19 D3 F6               OUT (0F6H),A
1718   0A1B 09                  ADD HL,BC
1719   0A1C 03          L0172:  INC BC
1720   0A1D 1F                  RRA
1721   0A1E 0A                  LD A,(BC)
1722   0A1F CD 24 0A            CALL L0008
1723   0A22 FD E9               JP (IY)
1724   0A24 11 FF 26    L0008:  LD DE,26FFH
1725   0A27 2A 24 3C            LD HL,(3C24H)
1726   0A2A 01 20 00            LD BC,0020H
1727   0A2D 09                  ADD HL,BC
1728   0A2E 2B                  DEC HL
1729   0A2F ED B8               LDDR
1730   0A31 ED 43 2F 3C         LD (3C2FH),BC
1731   0A35 21 00 24            LD HL,2400H
1732   0A38 22 1C 3C            LD (3C1CH),HL
1733   0A3B 13                  INC DE
1734   0A3C EB                  EX DE,HL
1735   0A3D 22 24 3C            LD (3C24H),HL
1736   0A40 C3 FA 07            JP L0065
1737   0A43 53                  LD D,E
1738   0A44 49                  LD C,C
1739   0A45 47                  LD B,A
1740   0A46 CE 9B               ADC A,9BH
1741   0A48 09                  ADD HL,BC
1742   0A49 04                  INC B
1743   0A4A 4C                  LD C,H
1744   0A4B 0A                  LD A,(BC)
1745   0A4C DF                  RST 18H
1746   0A4D CB 12               RL D
1747   0A4F 1E 2D               LD E,2DH
1748   0A51 38 0C               JR C,L0171
1749   0A53 FD E9               JP (IY)
1750   0A55 48                  LD C,B
1751   0A56 4F                  LD C,A
1752   0A57 4C                  LD C,H
1753   0A58 C4 1C 0A            CALL NZ,L0172
1754   0A5B 04                  INC B
1755   0A5C 5E                  LD E,(HL)
1756   0A5D 0A                  LD A,(BC)
1757   0A5E DF                  RST 18H
1758   0A5F 2A 1A 3C    L0171:  LD HL,(3C1AH)
1759   0A62 2D                  DEC L
1760   0A63 28 04               JR Z,L0173
1761   0A65 22 1A 3C            LD (3C1AH),HL
1762   0A68 73                  LD (HL),E
1763   0A69 FD E9       L0173:  JP (IY)
1764   0A6B 53                  LD D,E
1765   0A6C 50                  LD D,B
1766   0A6D 41                  LD B,C
1767   0A6E 43                  LD B,E
1768   0A6F C5                  PUSH BC
1769   0A70 5B                  LD E,E
1770   0A71 0A                  LD A,(BC)
1771   0A72 05                  DEC B
1772   0A73 75                  LD (HL),L
1773   0A74 0A                  LD A,(BC)
1774   0A75 3E 20               LD A,20H
1775   0A77 CF                  RST 08H
1776   0A78 FD E9       L0174:  JP (IY)
1777   0A7A 53                  LD D,E
1778   0A7B 50                  LD D,B
1779   0A7C 41                  LD B,C
1780   0A7D 43                  LD B,E
1781   0A7E 45                  LD B,L
1782   0A7F D3 72               OUT (72H),A
1783   0A81 0A                  LD A,(BC)
1784   0A82 06 85       L0176:  LD B,85H
1785   0A84 0A                  LD A,(BC)
1786   0A85 DF                  RST 18H
1787   0A86 1B          L0175:  DEC DE
1788   0A87 CB 7A               BIT 7,D
1789   0A89 20 ED               JR NZ,L0174
1790   0A8B 3E 20               LD A,20H
1791   0A8D CF                  RST 08H
1792   0A8E 18 F6               JR L0175
1793   0A90 43                  LD B,E
1794   0A91 D2 82 0A            JP NC,L0176
1795   0A94 02          L0177:  LD (BC),A
1796   0A95 97                  SUB A
1797   0A96 0A                  LD A,(BC)
1798   0A97 3E 0D               LD A,0DH
1799   0A99 CF                  RST 08H
1800   0A9A FD E9               JP (IY)
1801   0A9C 45                  LD B,L
1802   0A9D 4D                  LD C,L
1803   0A9E 49                  LD C,C
1804   0A9F D4 94 0A            CALL NC,L0177
1805   0AA2 04                  INC B
1806   0AA3 A5                  AND L
1807   0AA4 0A                  LD A,(BC)
1808   0AA5 DF                  RST 18H
1809   0AA6 7B                  LD A,E
1810   0AA7 CF                  RST 08H
1811   0AA8 FD E9               JP (IY)
1812   0AAA 46                  LD B,(HL)
1813   0AAB AE                  XOR (HL)
1814   0AAC A2                  AND D
1815   0AAD 0A                  LD A,(BC)
1816   0AAE 02          L0188:  LD (BC),A
1817   0AAF B1                  OR C
1818   0AB0 0A                  LD A,(BC)
1819   0AB1 2A 3B 3C            LD HL,(3C3BH)
1820   0AB4 2B                  DEC HL
1821   0AB5 CB 7E               BIT 7,(HL)
1822   0AB7 CB BE               RES 7,(HL)
1823   0AB9 28 03               JR Z,L0178
1824   0ABB 3E 2D               LD A,2DH
1825   0ABD CF                  RST 08H
1826   0ABE 1E 00       L0178:  LD E,00H
1827   0AC0 7E                  LD A,(HL)
1828   0AC1 3D                  DEC A
1829   0AC2 FE 49               CP 49H
1830   0AC4 30 04               JR NC,L0179
1831   0AC6 FE 3C               CP 3CH
1832   0AC8 30 04               JR NC,L0180
1833   0ACA 36 41       L0179:  LD (HL),41H
1834   0ACC 3C                  INC A
1835   0ACD 5F                  LD E,A
1836   0ACE 3E 40       L0180:  LD A,40H
1837   0AD0 96                  SUB (HL)
1838   0AD1 38 09               JR C,L0181
1839   0AD3 47                  LD B,A
1840   0AD4 04                  INC B
1841   0AD5 3E 2E               LD A,2EH
1842   0AD7 CF          L0182:  RST 08H
1843   0AD8 3E 30               LD A,30H
1844   0ADA 10 FB               DJNZ L0182
1845   0ADC 3E 40       L0181:  LD A,40H
1846   0ADE BE                  CP (HL)
1847   0ADF 9F                  SBC A,A
1848   0AE0 2B                  DEC HL
1849   0AE1 B6                  OR (HL)
1850   0AE2 2B                  DEC HL
1851   0AE3 B6                  OR (HL)
1852   0AE4 2B                  DEC HL
1853   0AE5 B6                  OR (HL)
1854   0AE6 23                  INC HL
1855   0AE7 23                  INC HL
1856   0AE8 28 12               JR Z,L0183
1857   0AEA AF                  XOR A
1858   0AEB CD 32 07            CALL L0184
1859   0AEE C6 30               ADD A,30H
1860   0AF0 CF                  RST 08H
1861   0AF1 23                  INC HL
1862   0AF2 7E                  LD A,(HL)
1863   0AF3 FE 40               CP 40H
1864   0AF5 20 E5               JR NZ,L0181
1865   0AF7 3E 2E               LD A,2EH
1866   0AF9 CF                  RST 08H
1867   0AFA 18 E0               JR L0181
1868   0AFC 7B          L0183:  LD A,E
1869   0AFD A7                  AND A
1870   0AFE 20 05               JR NZ,L0185
1871   0B00 3E 20               LD A,20H
1872   0B02 CF                  RST 08H
1873   0B03 18 0B               JR L0186
1874   0B05 D6 41       L0185:  SUB 41H
1875   0B07 6F                  LD L,A
1876   0B08 9F                  SBC A,A
1877   0B09 67                  LD H,A
1878   0B0A 3E 45               LD A,45H
1879   0B0C CF                  RST 08H
1880   0B0D CD 0E 18            CALL L0187
1881   0B10 DF                  RST 18H
1882   0B11 DF                  RST 18H
1883   0B12 FD E9               JP (IY)
1884   0B14 41                  LD B,C
1885   0B15 D4 AE 0A            CALL NC,L0188
1886   0B18 02          L0190:  LD (BC),A
1887   0B19 1B                  DEC DE
1888   0B1A 0B                  DEC BC
1889   0B1B DF                  RST 18H
1890   0B1C CD 4E 08            CALL L0157
1891   0B1F 79                  LD A,C
1892   0B20 CD 28 0B            CALL L0189
1893   0B23 22 1C 3C            LD (3C1CH),HL
1894   0B26 FD E9               JP (IY)
1895   0B28 C6 20       L0189:  ADD A,20H
1896   0B2A 6F                  LD L,A
1897   0B2B 26 01               LD H,01H
1898   0B2D 29                  ADD HL,HL
1899   0B2E 29                  ADD HL,HL
1900   0B2F 29                  ADD HL,HL
1901   0B30 29                  ADD HL,HL
1902   0B31 29                  ADD HL,HL
1903   0B32 16 00               LD D,00H
1904   0B34 7B                  LD A,E
1905   0B35 E6 1F               AND 1FH
1906   0B37 5F                  LD E,A
1907   0B38 19                  ADD HL,DE
1908   0B39 ED 5B 24 3C         LD DE,(3C24H)
1909   0B3D ED 52               SBC HL,DE
1910   0B3F 19                  ADD HL,DE
1911   0B40 D8                  RET C
1912   0B41 E7                  RST 20H
1913   0B42 09                  ADD HL,BC
1914   0B43 50                  LD D,B
1915   0B44 4C                  LD C,H
1916   0B45 4F                  LD C,A
1917   0B46 D4 18 0B            CALL NC,L0190
1918   0B49 04                  INC B
1919   0B4A 4C                  LD C,H
1920   0B4B 0B                  DEC BC
1921   0B4C CD 4E 08            CALL L0157
1922   0B4F DF                  RST 18H
1923   0B50 DD 73 30            LD (IX+30H),E
1924   0B53 CB 3B               SRL E
1925   0B55 CB 11               RL C
1926   0B57 3E 16               LD A,16H
1927   0B59 93                  SUB E
1928   0B5A DF                  RST 18H
1929   0B5B DD 73 2F            LD (IX+2FH),E
1930   0B5E CB 3B               SRL E
1931   0B60 CB 11               RL C
1932   0B62 CD 28 0B            CALL L0189
1933   0B65 7E                  LD A,(HL)
1934   0B66 E6 78               AND 78H
1935   0B68 FE 10               CP 10H
1936   0B6A 7E                  LD A,(HL)
1937   0B6B 28 02               JR Z,L0191
1938   0B6D 3E 10               LD A,10H
1939   0B6F 5F          L0191:  LD E,A
1940   0B70 16 87               LD D,87H
1941   0B72 79                  LD A,C
1942   0B73 E6 03               AND 03H
1943   0B75 47                  LD B,A
1944   0B76 28 07               JR Z,L0192
1945   0B78 2F                  CPL
1946   0B79 C6 02               ADD A,02H
1947   0B7B CE 03               ADC A,03H
1948   0B7D 57                  LD D,A
1949   0B7E 43                  LD B,E
1950   0B7F 79          L0192:  LD A,C
1951   0B80 0F                  RRCA
1952   0B81 0F                  RRCA
1953   0B82 0F                  RRCA
1954   0B83 9F                  SBC A,A
1955   0B84 CB 59               BIT 3,C
1956   0B86 20 04               JR NZ,L0193
1957   0B88 AB                  XOR E
1958   0B89 07                  RLCA
1959   0B8A 9F                  SBC A,A
1960   0B8B A8                  XOR B
1961   0B8C A2          L0193:  AND D
1962   0B8D AB                  XOR E
1963   0B8E 77                  LD (HL),A
1964   0B8F FD E9               JP (IY)
1965   0B91 42                  LD B,D
1966   0B92 45                  LD B,L
1967   0B93 45                  LD B,L
1968   0B94 D0                  RET NC
1969   0B95 49                  LD C,C
1970   0B96 0B                  DEC BC
1971   0B97 04                  INC B
1972   0B98 C3 0E 12            JP L0194
1973   0B9B 09                  ADD HL,BC
1974   0B9C 4B                  LD C,E
1975   0B9D 10 7D               DJNZ L0195
1976   0B9F 85                  ADD A,L
1977   0BA0 08                  EX AF,AF'
1978   0BA1 7A                  LD A,D
1979   0BA2 0D                  DEC C
1980   0BA3 0E 1A               LD C,1AH
1981   0BA5 DF                  RST 18H
1982   0BA6 CD 4E 08            CALL L0157
1983   0BA9 21 F9 00            LD HL,00F9H
1984   0BAC 09                  ADD HL,BC
1985   0BAD 2C                  INC L
1986   0BAE F3                  DI
1987   0BAF 3E 7F       L0198:  LD A,7FH
1988   0BB1 DB FE               IN A,(0FEH)
1989   0BB3 0F                  RRCA
1990   0BB4 30 11               JR NC,L0196
1991   0BB6 CD C9 0B            CALL L0197
1992   0BB9 1B                  DEC DE
1993   0BBA 7A                  LD A,D
1994   0BBB D3 FE               OUT (0FEH),A
1995   0BBD CD C9 0B            CALL L0197
1996   0BC0 B3                  OR E
1997   0BC1 C2 AF 0B            JP NZ,L0198
1998   0BC4 FB                  EI
1999   0BC5 FD E9               JP (IY)
2000   0BC7 E7          L0196:  RST 20H
2001   0BC8 03                  INC BC
2002   0BC9 45          L0197:  LD B,L
2003   0BCA 4C                  LD C,H
2004   0BCB 10 FE       L0199:  DJNZ L0199
2005   0BCD 05                  DEC B
2006   0BCE 0D                  DEC C
2007   0BCF C2 CB 0B            JP NZ,L0199
2008   0BD2 C9                  RET
2009   0BD3 49                  LD C,C
2010   0BD4 4E          L0202:  LD C,(HL)
2011   0BD5 4B                  LD C,E
2012   0BD6 45                  LD B,L
2013   0BD7 D9                  EXX
2014   0BD8 97                  SUB A
2015   0BD9 0B                  DEC BC
2016   0BDA 05                  DEC B
2017   0BDB DD                  .DB 0DDH ;UNRECOGNIZED
2018   0BDC 0B                  DEC BC
2019   0BDD CD 36 03            CALL L0067
2020   0BE0 5F                  LD E,A
2021   0BE1 16 00               LD D,00H
2022   0BE3 D7                  RST 10H
2023   0BE4 FD E9               JP (IY)
2024   0BE6 49                  LD C,C
2025   0BE7 CE DA       L0203:  ADC A,0DAH
2026   0BE9 0B                  DEC BC
2027   0BEA 02          L0200:  LD (BC),A
2028   0BEB ED 0B               .DB 0EDH 0BH ;UNRECOGNIZED
2029   0BED CD 4E 08            CALL L0157
2030   0BF0 16 00               LD D,00H
2031   0BF2 ED 58               IN E,(C)
2032   0BF4 D7                  RST 10H
2033   0BF5 FD E9       L0205:  JP (IY)
2034   0BF7 4F                  LD C,A
2035   0BF8 55                  LD D,L
2036   0BF9 D4 EA 0B            CALL NC,L0200
2037   0BFC 03                  INC BC
2038   0BFD FF                  RST 38H
2039   0BFE 0B                  DEC BC
2040   0BFF CD 4E 08            CALL L0157
2041   0C02 DF                  RST 18H
2042   0C03 ED 59               OUT (C),E
2043   0C05 FD E9               JP (IY)
2044   0C07 41                  LD B,C
2045   0C08 42                  LD B,D
2046   0C09 D3 FC               OUT (0FCH),A
2047   0C0B 0B                  DEC BC
2048   0C0C 03                  INC BC
2049   0C0D C3 0E 6B            JP L0201
2050   0C10 08                  EX AF,AF'
2051   0C11 94                  SUB H
2052   0C12 0D                  DEC C
2053   0C13 B6                  OR (HL)
2054   0C14 04                  INC B
2055   0C15 30 BD               JR NC,L0202
2056   0C17 0C                  INC C
2057   0C18 0C                  INC C
2058   0C19 02                  LD (BC),A
2059   0C1A 1C                  INC E
2060   0C1B 0C                  INC C
2061   0C1C DF          L0195:  RST 18H
2062   0C1D 7A                  LD A,D
2063   0C1E B3                  OR E
2064   0C1F FE 01               CP 01H
2065   0C21 3E 00       L0152:  LD A,00H
2066   0C23 57                  LD D,A
2067   0C24 17                  RLA
2068   0C25 5F                  LD E,A
2069   0C26 D7                  RST 10H
2070   0C27 FD E9               JP (IY)
2071   0C29 30 BC               JR NC,L0203
2072   0C2B 19                  ADD HL,DE
2073   0C2C 0C                  INC C
2074   0C2D 02                  LD (BC),A
2075   0C2E 30 0C               JR NC,L0204
2076   0C30 DF                  RST 18H
2077   0C31 CB 12               RL D
2078   0C33 18 EC               JR L0152
2079   0C35 30 BE               JR NC,L0205
2080   0C37 2D                  DEC L
2081   0C38 0C                  INC C
2082   0C39 02                  LD (BC),A
2083   0C3A 3C                  INC A
2084   0C3B 0C                  INC C
2085   0C3C DF          L0204:  RST 18H
2086   0C3D 7A                  LD A,D
2087   0C3E B3                  OR E
2088   0C3F 28 E0               JR Z,L0152
2089   0C41 CB 12               RL D
2090   0C43 3F                  CCF
2091   0C44 18 DB               JR L0152
2092   0C46 BD                  CP L
2093   0C47 39                  ADD HL,SP
2094   0C48 0C                  INC C
2095   0C49 01 C3 0E            LD BC,0EC3H
2096   0C4C E1                  POP HL
2097   0C4D 0D                  DEC C
2098   0C4E 1A                  LD A,(DE)
2099   0C4F 0C                  INC C
2100   0C50 B6                  OR (HL)
2101   0C51 04                  INC B
2102   0C52 BE                  CP (HL)
2103   0C53 49                  LD C,C
2104   0C54 0C                  INC C
2105   0C55 01 58 0C            LD BC,0C58H
2106   0C58 DF                  RST 18H
2107   0C59 D5                  PUSH DE
2108   0C5A DF                  RST 18H
2109   0C5B E1                  POP HL
2110   0C5C CD 99 0C            CALL L0206
2111   0C5F 18 C0               JR L0152
2112   0C61 BC                  CP H
2113   0C62 55                  LD D,L
2114   0C63 0C                  INC C
2115   0C64 01 C3 0E            LD BC,0EC3H
2116   0C67 85                  ADD A,L
2117   0C68 08                  EX AF,AF'
2118   0C69 56                  LD D,(HL)
2119   0C6A 0C                  INC C
2120   0C6B B6                  OR (HL)
2121   0C6C 04                  INC B
2122   0C6D 55                  LD D,L
2123   0C6E BC                  CP H
2124   0C6F 64                  LD H,H
2125   0C70 0C                  INC C
2126   0C71 02                  LD (BC),A
2127   0C72 74                  LD (HL),H
2128   0C73 0C                  INC C
2129   0C74 CD 4E 08            CALL L0157
2130   0C77 DF          L0207:  RST 18H
2131   0C78 EB                  EX DE,HL
2132   0C79 A7                  AND A
2133   0C7A ED 42               SBC HL,BC
2134   0C7C 18 A3               JR L0152
2135   0C7E 44                  LD B,H
2136   0C7F BC                  CP H
2137   0C80 71                  LD (HL),C
2138   0C81 0C                  INC C
2139   0C82 02                  LD (BC),A
2140   0C83 85                  ADD A,L
2141   0C84 0C                  INC C
2142   0C85 DF                  RST 18H
2143   0C86 D5                  PUSH DE
2144   0C87 CD 4E 08            CALL L0157
2145   0C8A DF                  RST 18H
2146   0C8B E1                  POP HL
2147   0C8C A7                  AND A
2148   0C8D ED 52               SBC HL,DE
2149   0C8F 28 E6               JR Z,L0207
2150   0C91 19                  ADD HL,DE
2151   0C92 EB                  EX DE,HL
2152   0C93 CD 99 0C            CALL L0206
2153   0C96 DF                  RST 18H
2154   0C97 18 88               JR L0152
2155   0C99 7C          L0206:  LD A,H
2156   0C9A AA                  XOR D
2157   0C9B FA A0 0C            JP M,L0208
2158   0C9E ED 52               SBC HL,DE
2159   0CA0 CB 14       L0208:  RL H
2160   0CA2 C9                  RET
2161   0CA3 55                  LD D,L
2162   0CA4 AA                  XOR D
2163   0CA5 82                  ADD A,D
2164   0CA6 0C                  INC C
2165   0CA7 02          L0215:  LD (BC),A
2166   0CA8 AA                  XOR D
2167   0CA9 0C                  INC C
2168   0CAA DF                  RST 18H
2169   0CAB CD 4E 08            CALL L0157
2170   0CAE 21 00 00            LD HL,0000H
2171   0CB1 3E 10               LD A,10H
2172   0CB3 29          L0210:  ADD HL,HL
2173   0CB4 EB                  EX DE,HL
2174   0CB5 ED 6A               ADC HL,HL
2175   0CB7 EB                  EX DE,HL
2176   0CB8 30 04               JR NC,L0209
2177   0CBA 09                  ADD HL,BC
2178   0CBB 30 01               JR NC,L0209
2179   0CBD 13                  INC DE
2180   0CBE 3D          L0209:  DEC A
2181   0CBF 20 F2               JR NZ,L0210
2182   0CC1 EB                  EX DE,HL
2183   0CC2 18 2F               JR L0211
2184   0CC4 C6 0C               ADD A,0CH
2185   0CC6 DF                  RST 18H
2186   0CC7 D9                  EXX
2187   0CC8 DF                  RST 18H
2188   0CC9 D5                  PUSH DE
2189   0CCA DF                  RST 18H
2190   0CCB E1                  POP HL
2191   0CCC 7C                  LD A,H
2192   0CCD B5                  OR L
2193   0CCE 3E 21               LD A,21H
2194   0CD0 20 03               JR NZ,L0212
2195   0CD2 EB                  EX DE,HL
2196   0CD3 3E 11               LD A,11H
2197   0CD5 D9          L0212:  EXX
2198   0CD6 47                  LD B,A
2199   0CD7 AF                  XOR A
2200   0CD8 67                  LD H,A
2201   0CD9 6F                  LD L,A
2202   0CDA 4F                  LD C,A
2203   0CDB ED 6A       L0214:  ADC HL,HL
2204   0CDD 9F                  SBC A,A
2205   0CDE A7                  AND A
2206   0CDF ED 52               SBC HL,DE
2207   0CE1 99                  SBC A,C
2208   0CE2 30 01               JR NC,L0213
2209   0CE4 19                  ADD HL,DE
2210   0CE5 3F          L0213:  CCF
2211   0CE6 D9                  EXX
2212   0CE7 EB                  EX DE,HL
2213   0CE8 ED 6A               ADC HL,HL
2214   0CEA EB                  EX DE,HL
2215   0CEB ED 6A               ADC HL,HL
2216   0CED D9                  EXX
2217   0CEE 10 EB               DJNZ L0214
2218   0CF0 EB                  EX DE,HL
2219   0CF1 D7                  RST 10H
2220   0CF2 D9                  EXX
2221   0CF3 E5          L0211:  PUSH HL
2222   0CF4 D7                  RST 10H
2223   0CF5 D1                  POP DE
2224   0CF6 D7                  RST 10H
2225   0CF7 FD E9               JP (IY)
2226   0CF9 2F                  CPL
2227   0CFA 4D                  LD C,L
2228   0CFB 4F                  LD C,A
2229   0CFC C4 A7 0C            CALL NZ,L0215
2230   0CFF 04          L0219:  INC B
2231   0D00 C3 0E 85            JP L0216
2232   0D03 08                  EX AF,AF'
2233   0D04 D2 08 E9            JP NC,L0217
2234   0D07 12                  LD (DE),A
2235   0D08 0D                  DEC C
2236   0D09 0C                  INC C
2237   0D0A 4B                  LD C,E
2238   0D0B 10 00               DJNZ L0218
2239   0D0D FF          L0218:  RST 38H
2240   0D0E 08                  EX AF,AF'
2241   0D0F 6B                  LD L,E
2242   0D10 08                  EX AF,AF'
2243   0D11 E9                  JP (HL)
2244   0D12 12                  LD (DE),A
2245   0D13 60                  LD H,B
2246   0D14 0E D2               LD C,0D2H
2247   0D16 08                  EX AF,AF'
2248   0D17 0D                  DEC C
2249   0D18 0C                  INC C
2250   0D19 8C                  ADC A,H
2251   0D1A 0D                  DEC C
2252   0D1B DF                  RST 18H
2253   0D1C 08                  EX AF,AF'
2254   0D1D 94                  SUB H
2255   0D1E 0D                  DEC C
2256   0D1F 85                  ADD A,L
2257   0D20 08                  EX AF,AF'
2258   0D21 DF                  RST 18H
2259   0D22 08                  EX AF,AF'
2260   0D23 94                  SUB H
2261   0D24 0D                  DEC C
2262   0D25 85                  ADD A,L
2263   0D26 08                  EX AF,AF'
2264   0D27 B6                  OR (HL)
2265   0D28 04                  INC B
2266   0D29 2A 2F 4D            LD HL,(4D2FH)
2267   0D2C 4F                  LD C,A
2268   0D2D C4 FF 0C            CALL NZ,L0219
2269   0D30 05                  DEC B
2270   0D31 C3 0E FF            JP L0220
2271   0D34 08                  EX AF,AF'
2272   0D35 D2 08 E9            JP NC,L0217
2273   0D38 12                  LD (DE),A
2274   0D39 0D                  DEC C
2275   0D3A 0C                  INC C
2276   0D3B FF                  RST 38H
2277   0D3C 08                  EX AF,AF'
2278   0D3D 6B                  LD L,E
2279   0D3E 08                  EX AF,AF'
2280   0D3F DF                  RST 18H
2281   0D40 08                  EX AF,AF'
2282   0D41 60                  LD H,B
2283   0D42 0E D2               LD C,0D2H
2284   0D44 08                  EX AF,AF'
2285   0D45 0D                  DEC C
2286   0D46 0C                  INC C
2287   0D47 A8                  XOR B
2288   0D48 0C                  INC C
2289   0D49 76                  HALT
2290   0D4A 12                  LD (DE),A
2291   0D4B C1                  POP BC
2292   0D4C FF                  RST 38H
2293   0D4D AF                  XOR A
2294   0D4E 30 0D               JR NC,L0221
2295   0D50 01 C3 0E    L0222:  LD BC,0EC3H
2296   0D53 00                  NOP
2297   0D54 0D                  DEC C
2298   0D55 85                  ADD A,L
2299   0D56 08                  EX AF,AF'
2300   0D57 79                  LD A,C
2301   0D58 08                  EX AF,AF'
2302   0D59 B6                  OR (HL)
2303   0D5A 04                  INC B
2304   0D5B 4D                  LD C,L
2305   0D5C 4F                  LD C,A
2306   0D5D C4 50 0D    L0221:  CALL NZ,L0222
2307   0D60 03                  INC BC
2308   0D61 C3 0E 00            JP L0223
2309   0D64 0D                  DEC C
2310   0D65 79                  LD A,C
2311   0D66 08                  EX AF,AF'
2312   0D67 B6                  OR (HL)
2313   0D68 04                  INC B
2314   0D69 AA                  XOR D
2315   0D6A 60                  LD H,B
2316   0D6B 0D                  DEC C
2317   0D6C 01 C3 0E            LD BC,0EC3H
2318   0D6F A8                  XOR B
2319   0D70 0C                  INC C
2320   0D71 79                  LD A,C
2321   0D72 08                  EX AF,AF'
2322   0D73 B6                  OR (HL)
2323   0D74 04                  INC B
2324   0D75 2A AF 6C            LD HL,(6CAFH)
2325   0D78 0D                  DEC C
2326   0D79 02          L0225:  LD (BC),A
2327   0D7A C3 0E 31            JP L0224
2328   0D7D 0D                  DEC C
2329   0D7E 85                  ADD A,L
2330   0D7F 08                  EX AF,AF'
2331   0D80 79                  LD A,C
2332   0D81 08                  EX AF,AF'
2333   0D82 B6                  OR (HL)
2334   0D83 04                  INC B
2335   0D84 55                  LD D,L
2336   0D85 2F                  CPL
2337   0D86 4D                  LD C,L
2338   0D87 4F                  LD C,A
2339   0D88 C4 79 0D            CALL NZ,L0225
2340   0D8B 05                  DEC B
2341   0D8C C3 0E C4            JP L0226
2342   0D8F 0C                  INC C
2343   0D90 79                  LD A,C
2344   0D91 08                  EX AF,AF'
2345   0D92 B6                  OR (HL)
2346   0D93 04                  INC B
2347   0D94 C3 0E 2E            JP L0227
2348   0D97 0C                  INC C
2349   0D98 83                  ADD A,E
2350   0D99 12                  LD (DE),A
2351   0D9A 03                  INC BC
2352   0D9B 00                  NOP
2353   0D9C A9                  XOR C
2354   0D9D 0D                  DEC C
2355   0D9E B6                  OR (HL)
2356   0D9F 04                  INC B
2357   0DA0 4E                  LD C,(HL)
2358   0DA1 45                  LD B,L
2359   0DA2 47                  LD B,A
2360   0DA3 41                  LD B,C
2361   0DA4 54                  LD D,H
2362   0DA5 C5                  PUSH BC
2363   0DA6 8B                  ADC A,E
2364   0DA7 0D                  DEC C
2365   0DA8 06 AB               LD B,0ABH
2366   0DAA 0D                  DEC C
2367   0DAB 01 02 00            LD BC,0002H
2368   0DAE 18 0F               JR L0228
2369   0DB0 44                  LD B,H
2370   0DB1 4E                  LD C,(HL)
2371   0DB2 45                  LD B,L
2372   0DB3 47                  LD B,A
2373   0DB4 41                  LD B,C
2374   0DB5 54                  LD D,H
2375   0DB6 C5                  PUSH BC
2376   0DB7 A8                  XOR B
2377   0DB8 0D                  DEC C
2378   0DB9 07                  RLCA
2379   0DBA BC                  CP H
2380   0DBB 0D                  DEC C
2381   0DBC 01 04 00            LD BC,0004H
2382   0DBF 2A 3B 3C    L0228:  LD HL,(3C3BH)
2383   0DC2 A7                  AND A
2384   0DC3 ED 42               SBC HL,BC
2385   0DC5 78          L0229:  LD A,B
2386   0DC6 9E                  SBC A,(HL)
2387   0DC7 77                  LD (HL),A
2388   0DC8 23                  INC HL
2389   0DC9 0D                  DEC C
2390   0DCA 20 F9               JR NZ,L0229
2391   0DCC FD E9               JP (IY)
2392   0DCE AB                  XOR E
2393   0DCF B9                  CP C
2394   0DD0 0D                  DEC C
2395   0DD1 01 D4 0D            LD BC,0DD4H
2396   0DD4 DF                  RST 18H
2397   0DD5 D5                  PUSH DE
2398   0DD6 DF                  RST 18H
2399   0DD7 E1                  POP HL
2400   0DD8 19                  ADD HL,DE
2401   0DD9 EB                  EX DE,HL
2402   0DDA D7                  RST 10H
2403   0DDB FD E9               JP (IY)
2404   0DDD AD                  XOR L
2405   0DDE D1                  POP DE
2406   0DDF 0D                  DEC C
2407   0DE0 01 C3 0E            LD BC,0EC3H
2408   0DE3 A9                  XOR C
2409   0DE4 0D                  DEC C
2410   0DE5 D2 0D B6            JP NC,L0230
2411   0DE8 04                  INC B
2412   0DE9 44                  LD B,H
2413   0DEA AB                  XOR E
2414   0DEB E0                  RET PO
2415   0DEC 0D                  DEC C
2416   0DED 02                  LD (BC),A
2417   0DEE F0                  RET P
2418   0DEF 0D                  DEC C
2419   0DF0 DF                  RST 18H
2420   0DF1 D5                  PUSH DE
2421   0DF2 CD 4E 08            CALL L0157
2422   0DF5 DF                  RST 18H
2423   0DF6 D5                  PUSH DE
2424   0DF7 DF                  RST 18H
2425   0DF8 EB                  EX DE,HL
2426   0DF9 09                  ADD HL,BC
2427   0DFA EB                  EX DE,HL
2428   0DFB D7                  RST 10H
2429   0DFC C1                  POP BC
2430   0DFD E1                  POP HL
2431   0DFE ED 4A               ADC HL,BC
2432   0E00 EB                  EX DE,HL
2433   0E01 D7                  RST 10H
2434   0E02 FD E9               JP (IY)
2435   0E04 31 AB ED            LD SP,0EDABH
2436   0E07 0D                  DEC C
2437   0E08 02                  LD (BC),A
2438   0E09 0B                  DEC BC
2439   0E0A 0E DF               LD C,0DFH
2440   0E0C 18 09               JR L0231
2441   0E0E 32 AB 08            LD (08ABH),A
2442   0E11 0E 02               LD C,02H
2443   0E13 15                  DEC D
2444   0E14 0E DF               LD C,0DFH
2445   0E16 13                  INC DE
2446   0E17 13          L0231:  INC DE
2447   0E18 18 14               JR L0232
2448   0E1A 31 AD 12            LD SP,12ADH
2449   0E1D 0E 02               LD C,02H
2450   0E1F 21 0E DF            LD HL,0DF0EH
2451   0E22 18 09               JR L0233
2452   0E24 32 AD 1E            LD (1EADH),A
2453   0E27 0E 02               LD C,02H
2454   0E29 2B                  DEC HL
2455   0E2A 0E DF               LD C,0DFH
2456   0E2C 1B                  DEC DE
2457   0E2D 1B          L0233:  DEC DE
2458   0E2E D7          L0232:  RST 10H
2459   0E2F FD E9               JP (IY)
2460   0E31 4F                  LD C,A
2461   0E32 D2 28 0E            JP NC,L0234
2462   0E35 02          L0236:  LD (BC),A
2463   0E36 38 0E               JR C,L0235
2464   0E38 DF                  RST 18H
2465   0E39 CD 4E 08            CALL L0157
2466   0E3C 7B                  LD A,E
2467   0E3D B1                  OR C
2468   0E3E 5F                  LD E,A
2469   0E3F 7A                  LD A,D
2470   0E40 B0                  OR B
2471   0E41 57                  LD D,A
2472   0E42 D7                  RST 10H
2473   0E43 FD E9               JP (IY)
2474   0E45 41                  LD B,C
2475   0E46 4E          L0235:  LD C,(HL)
2476   0E47 C4 35 0E            CALL NZ,L0236
2477   0E4A 03          L0237:  INC BC
2478   0E4B 4D                  LD C,L
2479   0E4C 0E DF               LD C,0DFH
2480   0E4E CD 4E 08            CALL L0157
2481   0E51 7B                  LD A,E
2482   0E52 A1                  AND C
2483   0E53 5F                  LD E,A
2484   0E54 7A                  LD A,D
2485   0E55 A0                  AND B
2486   0E56 57                  LD D,A
2487   0E57 D7                  RST 10H
2488   0E58 FD E9               JP (IY)
2489   0E5A 58                  LD E,B
2490   0E5B 4F                  LD C,A
2491   0E5C D2 4A 0E            JP NC,L0237
2492   0E5F 03                  INC BC
2493   0E60 62                  LD H,D
2494   0E61 0E DF               LD C,0DFH
2495   0E63 CD 4E 08            CALL L0157
2496   0E66 7B                  LD A,E
2497   0E67 A9                  XOR C
2498   0E68 5F                  LD E,A
2499   0E69 7A                  LD A,D
2500   0E6A A8                  XOR B
2501   0E6B 57                  LD D,A
2502   0E6C D7                  RST 10H
2503   0E6D FD E9               JP (IY)
2504   0E6F 4D                  LD C,L
2505   0E70 41                  LD B,C
2506   0E71 D8                  RET C
2507   0E72 5F                  LD E,A
2508   0E73 0E 03               LD C,03H
2509   0E75 C3 0E 12    L0239:  JP L0194
2510   0E78 09                  ADD HL,BC
2511   0E79 12                  LD (DE),A
2512   0E7A 09                  ADD HL,BC
2513   0E7B 65                  LD H,L
2514   0E7C 0C                  INC C
2515   0E7D 71                  LD (HL),C
2516   0E7E 12                  LD (DE),A
2517   0E7F 0F                  RRCA
2518   0E80 00                  NOP
2519   0E81 4D                  LD C,L
2520   0E82 49                  LD C,C
2521   0E83 CE 74               ADC A,74H
2522   0E85 0E 03               LD C,03H
2523   0E87 C3 0E 12            JP L0194
2524   0E8A 09                  ADD HL,BC
2525   0E8B 12                  LD (DE),A
2526   0E8C 09                  ADD HL,BC
2527   0E8D 56                  LD D,(HL)
2528   0E8E 0C                  INC C
2529   0E8F 83                  ADD A,E
2530   0E90 12                  LD (DE),A
2531   0E91 03                  INC BC
2532   0E92 00                  NOP
2533   0E93 85                  ADD A,L
2534   0E94 08                  EX AF,AF'
2535   0E95 79                  LD A,C
2536   0E96 08                  EX AF,AF'
2537   0E97 B6                  OR (HL)
2538   0E98 04                  INC B
2539   0E99 44                  LD B,H
2540   0E9A 45                  LD B,L
2541   0E9B 43                  LD B,E
2542   0E9C 49                  LD C,C
2543   0E9D 4D                  LD C,L
2544   0E9E 41                  LD B,C
2545   0E9F CC 86 0E            CALL Z,L0238
2546   0EA2 07                  RLCA
2547   0EA3 A5                  AND L
2548   0EA4 0E DD               LD C,0DDH
2549   0EA6 36 3F               LD (HL),3FH
2550   0EA8 0A                  LD A,(BC)
2551   0EA9 FD E9               JP (IY)
2552   0EAB BA                  CP D
2553   0EAC A2                  AND D
2554   0EAD 0E 01               LD C,01H
2555   0EAF 85                  ADD A,L
2556   0EB0 10 C3               DJNZ L0239
2557   0EB2 0E 4B               LD C,4BH
2558   0EB4 10 0A               DJNZ L0240
2559   0EB6 0E 1A               LD C,1AH
2560   0EB8 21 3E 3C            LD HL,3C3EH
2561   0EBB 7E                  LD A,(HL)
2562   0EBC F6 44               OR 44H
2563   0EBE 77                  LD (HL),A
2564   0EBF FD E9               JP (IY)
2565   0EC1 E9                  JP (HL)
2566   0EC2 FF                  RST 38H
2567   0EC3 EB          L0275:  EX DE,HL
2568   0EC4 C3 BA 04            JP L0241
2569   0EC7 43                  LD B,E
2570   0EC8 52                  LD D,D
2571   0EC9 45                  LD B,L
2572   0ECA 41                  LD B,C
2573   0ECB 54                  LD D,H
2574   0ECC C5                  PUSH BC
2575   0ECD AE                  XOR (HL)
2576   0ECE 0E 06               LD C,06H
2577   0ED0 C3 0E 4B            JP L0242
2578   0ED3 10 20               DJNZ L0243
2579   0ED5 AB                  XOR E
2580   0ED6 05                  DEC B
2581   0ED7 FB                  EI
2582   0ED8 0E 88               LD C,88H
2583   0EDA 06 4E               LD B,4EH
2584   0EDC 0F                  RRCA
2585   0EDD 80                  ADD A,B
2586   0EDE 04                  INC B
2587   0EDF B3                  OR E
2588   0EE0 08                  EX AF,AF'
2589   0EE1 6B                  LD L,E
2590   0EE2 08                  EX AF,AF'
2591   0EE3 B3                  OR E
2592   0EE4 08                  EX AF,AF'
2593   0EE5 4E                  LD C,(HL)
2594   0EE6 0F                  RRCA
2595   0EE7 60                  LD H,B
2596   0EE8 04                  INC B
2597   0EE9 85                  ADD A,L
2598   0EEA 08                  EX AF,AF'
2599   0EEB C1                  POP BC
2600   0EEC 08                  EX AF,AF'
2601   0EED 99                  SBC A,C
2602   0EEE 04                  INC B
2603   0EEF 96                  SUB (HL)
2604   0EF0 08                  EX AF,AF'
2605   0EF1 5F                  LD E,A
2606   0EF2 0F                  RRCA
2607   0EF3 11 10 EC            LD DE,0EC10H
2608   0EF6 0F                  RRCA
2609   0EF7 4E                  LD C,(HL)
2610   0EF8 0F                  RRCA
2611   0EF9 B6                  OR (HL)
2612   0EFA 04                  INC B
2613   0EFB FD                  .DB 0FDH ;UNRECOGNIZED
2614   0EFC 0E CD               LD C,0CDH
2615   0EFE 2E 0F               LD L,0FH
2616   0F00 DF                  RST 18H
2617   0F01 1A                  LD A,(DE)
2618   0F02 3D                  DEC A
2619   0F03 FE 3F               CP 3FH
2620   0F05 38 02               JR C,L0244
2621   0F07 E7                  RST 20H
2622   0F08 06 C6               LD B,0C6H
2623   0F0A 08                  EX AF,AF'
2624   0F0B 4F                  LD C,A
2625   0F0C 06 00               LD B,00H
2626   0F0E CD 8C 0F    L0441:  CALL L0093
2627   0F11 1A                  LD A,(DE)
2628   0F12 4F                  LD C,A
2629   0F13 2A 37 3C            LD HL,(3C37H)
2630   0F16 D5                  PUSH DE
2631   0F17 CD 9E 0F            CALL L0245
2632   0F1A D1                  POP DE
2633   0F1B 1A                  LD A,(DE)
2634   0F1C 47                  LD B,A
2635   0F1D 13          L0246:  INC DE
2636   0F1E 1A                  LD A,(DE)
2637   0F1F CD 07 08            CALL L0030
2638   0F22 77                  LD (HL),A
2639   0F23 23                  INC HL
2640   0F24 10 F7               DJNZ L0246
2641   0F26 22 39 3C            LD (3C39H),HL
2642   0F29 2B                  DEC HL
2643   0F2A CB FE               SET 7,(HL)
2644   0F2C FD E9               JP (IY)
2645   0F2E DD CB 3E 56 L0318:  BIT 2,(IX+3EH)
2646   0F32 28 02               JR Z,L0247
2647   0F34 E7                  RST 20H
2648   0F35 0C                  INC C
2649   0F36 2A 37 3C    L0247:  LD HL,(3C37H)
2650   0F39 ED 5B 39 3C         LD DE,(3C39H)
2651   0F3D AF                  XOR A
2652   0F3E ED 52               SBC HL,DE
2653   0F40 EB                  EX DE,HL
2654   0F41 73                  LD (HL),E
2655   0F42 23                  INC HL
2656   0F43 72                  LD (HL),D
2657   0F44 67                  LD H,A
2658   0F45 6F                  LD L,A
2659   0F46 22 39 3C            LD (3C39H),HL
2660   0F49 C9                  RET
2661   0F4A AC                  XOR H
2662   0F4B CF                  RST 08H
2663   0F4C 0E 01               LD C,01H
2664   0F4E C3 0E 83            JP L0248
2665   0F51 0F                  RRCA
2666   0F52 60                  LD H,B
2667   0F53 04                  INC B
2668   0F54 29                  ADD HL,HL
2669   0F55 0E C1               LD C,0C1H
2670   0F57 08                  EX AF,AF'
2671   0F58 B6                  OR (HL)
2672   0F59 04                  INC B
2673   0F5A 43                  LD B,E
2674   0F5B AC                  XOR H
2675   0F5C 4D                  LD C,L
2676   0F5D 0F                  RRCA
2677   0F5E 02          L0250:  LD (BC),A
2678   0F5F C3 0E 4B            JP L0242
2679   0F62 10 01               DJNZ L0249
2680   0F64 76                  HALT
2681   0F65 0F          L0249:  RRCA
2682   0F66 60                  LD H,B
2683   0F67 04                  INC B
2684   0F68 1F                  RRA
2685   0F69 0E A5               LD C,0A5H
2686   0F6B 08                  EX AF,AF'
2687   0F6C B6                  OR (HL)
2688   0F6D 04                  INC B
2689   0F6E 41                  LD B,C
2690   0F6F 4C                  LD C,H
2691   0F70 4C                  LD C,H
2692   0F71 4F                  LD C,A
2693   0F72 D4 5E 0F            CALL NC,L0250
2694   0F75 05                  DEC B
2695   0F76 78                  LD A,B
2696   0F77 0F                  RRCA
2697   0F78 CD 4E 08            CALL L0157
2698   0F7B 2A 37 3C            LD HL,(3C37H)
2699   0F7E CD 9E 0F            CALL L0245
2700   0F81 FD E9               JP (IY)
2701   0F83 C3 0E 4B            JP L0242
2702   0F86 10 02               DJNZ L0251
2703   0F88 76                  HALT
2704   0F89 0F                  RRCA
2705   0F8A B6          L0251:  OR (HL)
2706   0F8B 04                  INC B
2707   0F8C 21 1E 00    L0093:  LD HL,001EH
2708   0F8F C5          L0254:  PUSH BC
2709   0F90 09                  ADD HL,BC
2710   0F91 ED 4B 3B 3C         LD BC,(3C3BH)
2711   0F95 09                  ADD HL,BC
2712   0F96 C1                  POP BC
2713   0F97 38 03               JR C,L0252
2714   0F99 ED 72               SBC HL,SP
2715   0F9B D8                  RET C
2716   0F9C E7          L0252:  RST 20H
2717   0F9D 01 EB 21            LD BC,21EBH
2718   0FA0 28 00               JR Z,L0253
2719   0FA2 CD 8F 0F    L0253:  CALL L0254
2720   0FA5 2A 37 3C            LD HL,(3C37H)
2721   0FA8 09                  ADD HL,BC
2722   0FA9 22 37 3C            LD (3C37H),HL
2723   0FAC 2A 3B 3C            LD HL,(3C3BH)
2724   0FAF E5                  PUSH HL
2725   0FB0 09                  ADD HL,BC
2726   0FB1 22 3B 3C            LD (3C3BH),HL
2727   0FB4 E3                  EX (SP),HL
2728   0FB5 E5                  PUSH HL
2729   0FB6 A7                  AND A
2730   0FB7 ED 52               SBC HL,DE
2731   0FB9 44                  LD B,H
2732   0FBA 4D                  LD C,L
2733   0FBB E1                  POP HL
2734   0FBC D1                  POP DE
2735   0FBD C8                  RET Z
2736   0FBE 2B                  DEC HL
2737   0FBF 1B                  DEC DE
2738   0FC0 ED B8               LDDR
2739   0FC2 23          L0255:  INC HL
2740   0FC3 C9                  RET
2741   0FC4 56                  LD D,(HL)
2742   0FC5 41                  LD B,C
2743   0FC6 52                  LD D,D
2744   0FC7 49                  LD C,C
2745   0FC8 41                  LD B,C
2746   0FC9 42                  LD B,D
2747   0FCA 4C                  LD C,H
2748   0FCB C5                  PUSH BC
2749   0FCC 75                  LD (HL),L
2750   0FCD 0F                  RRCA
2751   0FCE 08          L0256:  EX AF,AF'
2752   0FCF 85                  ADD A,L
2753   0FD0 10 F0               DJNZ L0255
2754   0FD2 0F                  RRCA
2755   0FD3 4E                  LD C,(HL)
2756   0FD4 0F                  RRCA
2757   0FD5 B6                  OR (HL)
2758   0FD6 04                  INC B
2759   0FD7 43                  LD B,E
2760   0FD8 4F                  LD C,A
2761   0FD9 4E                  LD C,(HL)
2762   0FDA 53          L0257:  LD D,E
2763   0FDB 54                  LD D,H
2764   0FDC 41                  LD B,C
2765   0FDD 4E                  LD C,(HL)
2766   0FDE D4 CE 0F            CALL NC,L0256
2767   0FE1 08          L0259:  EX AF,AF'
2768   0FE2 85                  ADD A,L
2769   0FE3 10 F5               DJNZ L0257
2770   0FE5 0F                  RRCA
2771   0FE6 4E                  LD C,(HL)
2772   0FE7 0F                  RRCA
2773   0FE8 B6                  OR (HL)
2774   0FE9 04                  INC B
2775   0FEA DC FE 18            CALL C,L0258
2776   0FED 02                  LD (BC),A
2777   0FEE D5                  PUSH DE
2778   0FEF FF                  RST 38H
2779   0FF0 D7          L0272:  RST 10H
2780   0FF1 FD E9               JP (IY)
2781   0FF3 E3                  EX (SP),HL
2782   0FF4 FF                  RST 38H
2783   0FF5 EB                  EX DE,HL
2784   0FF6 5E                  LD E,(HL)
2785   0FF7 23                  INC HL
2786   0FF8 56                  LD D,(HL)
2787   0FF9 D7                  RST 10H
2788   0FFA FD E9               JP (IY)
2789   0FFC 4C          L0269:  LD C,H
2790   0FFD 49                  LD C,C
2791   0FFE 54                  LD D,H
2792   0FFF 45                  LD B,L
2793   1000 52                  LD D,D
2794   1001 41                  LD B,C
2795   1002 CC E1 0F            CALL Z,L0259
2796   1005 47                  LD B,A
2797   1006 08                  EX AF,AF'
2798   1007 11 11 10            LD DE,1011H
2799   100A 4E                  LD C,(HL)
2800   100B 0F                  RRCA
2801   100C B6                  OR (HL)
2802   100D 04                  INC B
2803   100E 02          L0411:  LD (BC),A
2804   100F FF                  RST 38H
2805   1010 FF                  RST 38H
2806   1011 13                  INC DE
2807   1012 10 06               DJNZ L0260
2808   1014 01 E1 5E            LD BC,5EE1H
2809   1017 23                  INC HL
2810   1018 56                  LD D,(HL)
2811   1019 23          L0267:  INC HL
2812   101A E5          L0260:  PUSH HL
2813   101B D7                  RST 10H
2814   101C 10 F7               DJNZ L0261
2815   101E FD E9       L0264:  JP (IY)
2816   1020 41                  LD B,C
2817   1021 53                  LD D,E
2818   1022 43                  LD B,E
2819   1023 49                  LD C,C
2820   1024 C9                  RET
2821   1025 05                  DEC B
2822   1026 10 45               DJNZ L0262
2823   1028 C3 0E 4B            JP L0242
2824   102B 10 20               DJNZ L0263
2825   102D AB                  XOR E
2826   102E 05                  DEC B
2827   102F 09          L0266:  ADD HL,BC
2828   1030 0E 96               LD C,96H
2829   1032 08                  EX AF,AF'
2830   1033 0E 1A               LD C,1AH
2831   1035 DD CB 3E 76         BIT 6,(IX+3EH)
2832   1039 28 E3               JR Z,L0264
2833   103B CD B9 04            CALL L0018
2834   103E 11 10 4B            LD DE,4B10H
2835   1041 10 4E               DJNZ L0265
2836   1043 0F                  RRCA
2837   1044 5F                  LD E,A
2838   1045 0F                  RRCA
2839   1046 B6                  OR (HL)
2840   1047 04                  INC B
2841   1048 01 D6 FF            LD BC,0FFD6H
2842   104B 4D                  LD C,L
2843   104C 10 E1               DJNZ L0266
2844   104E 5E                  LD E,(HL)
2845   104F 16 00       L0273:  LD D,00H
2846   1051 06 01               LD B,01H
2847   1053 18 C4               JR L0267
2848   1055 08                  EX AF,AF'
2849   1056 11 64 10            LD DE,1064H
2850   1059 85                  ADD A,L
2851   105A 08                  EX AF,AF'
2852   105B 4E                  LD C,(HL)
2853   105C 0F                  RRCA
2854   105D 4E                  LD C,(HL)
2855   105E 0F                  RRCA
2856   105F B6                  OR (HL)
2857   1060 04                  INC B
2858   1061 04                  INC B
2859   1062 FF                  RST 38H
2860   1063 FF                  RST 38H
2861   1064 66                  LD H,(HL)
2862   1065 10 06               DJNZ L0262
2863   1067 02                  LD (BC),A
2864   1068 18 AB               JR L0261
2865   106A 44                  LD B,H
2866   106B 45                  LD B,L
2867   106C 46                  LD B,(HL)
2868   106D 49          L0262:  LD C,C
2869   106E 4E                  LD C,(HL)
2870   106F 45                  LD B,L
2871   1070 D2 27 10            JP NC,L0268
2872   1073 07          L0276:  RLCA
2873   1074 85                  ADD A,L
2874   1075 10 85               DJNZ L0269
2875   1077 10 60               DJNZ L0270
2876   1079 04                  INC B
2877   107A 4B                  LD C,E
2878   107B 10 0C               DJNZ L0271
2879   107D 83                  ADD A,E
2880   107E 0F                  RRCA
2881   107F 76                  HALT
2882   1080 12                  LD (DE),A
2883   1081 34                  INC (HL)
2884   1082 FE E6               CP 0E6H
2885   1084 FF                  RST 38H
2886   1085 CD F0 0F            CALL L0272
2887   1088 D0                  RET NC
2888   1089 0E 6B       L0271:  LD C,6BH
2889   108B 08                  EX AF,AF'
2890   108C B3                  OR E
2891   108D 08          L0279:  EX AF,AF'
2892   108E 60                  LD H,B
2893   108F 04                  INC B
2894   1090 29                  ADD HL,HL
2895   1091 0E C1       L0265:  LD C,0C1H
2896   1093 08                  EX AF,AF'
2897   1094 13                  INC DE
2898   1095 0E 9A               LD C,9AH
2899   1097 10 B6               DJNZ L0273
2900   1099 04                  INC B
2901   109A 9C                  SBC A,H
2902   109B 10 DF               DJNZ L0274
2903   109D C3 C3 0E            JP L0275
2904   10A0 43                  LD B,E
2905   10A1 41                  LD B,C
2906   10A2 4C                  LD C,H
2907   10A3 CC 73 10            CALL Z,L0276
2908   10A6 04          L0281:  INC B
2909   10A7 A9                  XOR C
2910   10A8 10 DF               DJNZ L0271
2911   10AA EB                  EX DE,HL
2912   10AB E9                  JP (HL)
2913   10AC 44                  LD B,H
2914   10AD 4F                  LD C,A
2915   10AE 45                  LD B,L
2916   10AF 53                  LD D,E
2917   10B0 BE                  CP (HL)
2918   10B1 F4 10 45            CALL P,L0277
2919   10B4 08                  EX AF,AF'
2920   10B5 11 E8 10            LD DE,10E8H
2921   10B8 D8                  RET C
2922   10B9 12                  LD (DE),A
2923   10BA 0C                  INC C
2924   10BB CD 10 4B            CALL L0278
2925   10BE 10 CD               DJNZ L0279
2926   10C0 5F                  LD E,A
2927   10C1 0F                  RRCA
2928   10C2 11 10 F0            LD DE,0F010H
2929   10C5 0F                  RRCA
2930   10C6 4E                  LD C,(HL)
2931   10C7 0F                  RRCA
2932   10C8 4B                  LD C,E
2933   10C9 10 0A               DJNZ L0280
2934   10CB B6                  OR (HL)
2935   10CC 04                  INC B
2936   10CD C3 0E 6B            JP L0201
2937   10D0 08                  EX AF,AF'
2938   10D1 29                  ADD HL,HL
2939   10D2 0E B5               LD C,0B5H
2940   10D4 15                  DEC D
2941   10D5 60          L0280:  LD H,B
2942   10D6 04                  INC B
2943   10D7 E1                  POP HL
2944   10D8 0D                  DEC C
2945   10D9 1F          L0270:  RRA
2946   10DA 0E 4E               LD C,4EH
2947   10DC 0F                  RRCA
2948   10DD 60                  LD H,B
2949   10DE 04                  INC B
2950   10DF 85                  ADD A,L
2951   10E0 08                  EX AF,AF'
2952   10E1 C1                  POP BC
2953   10E2 08                  EX AF,AF'
2954   10E3 B6                  OR (HL)
2955   10E4 04                  INC B
2956   10E5 05                  DEC B
2957   10E6 C5                  PUSH BC
2958   10E7 FF                  RST 38H
2959   10E8 B8                  CP B
2960   10E9 04                  INC B
2961   10EA 43                  LD B,E
2962   10EB 4F                  LD C,A
2963   10EC 4D                  LD C,L
2964   10ED 50                  LD D,B
2965   10EE 49                  LD C,C
2966   10EF 4C                  LD C,H
2967   10F0 45                  LD B,L
2968   10F1 D2 A6 10            JP NC,L0281
2969   10F4 08                  EX AF,AF'
2970   10F5 85                  ADD A,L
2971   10F6 10 08               DJNZ L0282
2972   10F8 11 60 11            LD DE,1160H
2973   10FB 60                  LD H,B
2974   10FC 04                  INC B
2975   10FD 4B                  LD C,E
2976   10FE 10 0B               DJNZ L0283
2977   1100 83          L0282:  ADD A,E
2978   1101 0F                  RRCA
2979   1102 76                  HALT
2980   1103 12                  LD (DE),A
2981   1104 B1                  OR C
2982   1105 FD E3               EX (SP),IY
2983   1107 FF                  RST 38H
2984   1108 DD CB 3E 76         BIT 6,(IX+3EH)
2985   110C 20 02               JR NZ,L0284
2986   110E E7                  RST 20H
2987   110F 04                  INC B
2988   1110 CD F0 0F    L0284:  CALL L0272
2989   1113 6B                  LD L,E
2990   1114 08                  EX AF,AF'
2991   1115 B3                  OR E
2992   1116 08                  EX AF,AF'
2993   1117 4E                  LD C,(HL)
2994   1118 0F                  RRCA
2995   1119 76                  HALT
2996   111A 12                  LD (DE),A
2997   111B 78                  LD A,B
2998   111C FF                  RST 38H
2999   111D 52                  LD D,D
3000   111E 55                  LD D,L
3001   111F 4E                  LD C,(HL)
3002   1120 53                  LD D,E
3003   1121 BE                  CP (HL)
3004   1122 B3                  OR E
3005   1123 10 45               DJNZ L0285
3006   1125 08                  EX AF,AF'
3007   1126 11 40 11            LD DE,1140H
3008   1129 D8                  RET C
3009   112A 12                  LD (DE),A
3010   112B 0B                  DEC BC
3011   112C 85                  ADD A,L
3012   112D 08                  EX AF,AF'
3013   112E 5F                  LD E,A
3014   112F 0F                  RRCA
3015   1130 CD 10 11            CALL L0284
3016   1133 10 42               DJNZ L0286
3017   1135 11 4E 0F    L0289:  LD DE,0F4EH
3018   1138 4B                  LD C,E
3019   1139 10 0A               DJNZ L0287
3020   113B B6                  OR (HL)
3021   113C 04                  INC B
3022   113D 05                  DEC B
3023   113E DE FF               SBC A,0FFH
3024   1140 B8                  CP B
3025   1141 04                  INC B
3026   1142 E1                  POP HL
3027   1143 D5                  PUSH DE
3028   1144 EB                  EX DE,HL
3029   1145 D7          L0287:  RST 10H
3030   1146 42                  LD B,D
3031   1147 4B                  LD C,E
3032   1148 D1                  POP DE
3033   1149 D5                  PUSH DE
3034   114A 1B                  DEC DE
3035   114B 1B                  DEC DE
3036   114C CD 9E 15            CALL L0288
3037   114F D1                  POP DE
3038   1150 C5                  PUSH BC
3039   1151 C3 C3 0E            JP L0275
3040   1154 49                  LD C,C
3041   1155 4D                  LD C,L
3042   1156 4D                  LD C,L
3043   1157 45                  LD B,L
3044   1158 44                  LD B,H
3045   1159 49                  LD C,C
3046   115A 41                  LD B,C
3047   115B 54                  LD D,H
3048   115C C5                  PUSH BC
3049   115D 24                  INC H
3050   115E 11 09 C3            LD DE,0C309H
3051   1161 0E 80               LD C,80H
3052   1163 04                  INC B
3053   1164 B3                  OR E
3054   1165 08                  EX AF,AF'
3055   1166 B3                  OR E
3056   1167 08                  EX AF,AF'
3057   1168 0E 1A               LD C,1AH
3058   116A DF          L0285:  RST 18H
3059   116B EB                  EX DE,HL
3060   116C CB F6               SET 6,(HL)
3061   116E FD E9               JP (IY)
3062   1170 56                  LD D,(HL)
3063   1171 4F                  LD C,A
3064   1172 43                  LD B,E
3065   1173 41                  LD B,C
3066   1174 42                  LD B,D
3067   1175 55                  LD D,L
3068   1176 4C                  LD C,H
3069   1177 41          L0286:  LD B,C
3070   1178 52                  LD D,D
3071   1179 D9                  EXX
3072   117A 5F                  LD E,A
3073   117B 11 0A 85            LD DE,850AH
3074   117E 10 B5               DJNZ L0289
3075   1180 11 80 04            LD DE,0480H
3076   1183 B3                  OR E
3077   1184 08                  EX AF,AF'
3078   1185 13                  INC DE
3079   1186 0E 4E               LD C,4EH
3080   1188 0F                  RRCA
3081   1189 88                  ADC A,B
3082   118A 06 5F               LD B,5FH
3083   118C 0F                  RRCA
3084   118D 60                  LD H,B
3085   118E 04                  INC B
3086   118F 11 10 35            LD DE,3510H
3087   1192 3C                  INC A
3088   1193 6B                  LD L,E
3089   1194 08                  EX AF,AF'
3090   1195 B3                  OR E
3091   1196 08                  EX AF,AF'
3092   1197 4E                  LD C,(HL)
3093   1198 0F                  RRCA
3094   1199 C1                  POP BC
3095   119A 08                  EX AF,AF'
3096   119B B6                  OR (HL)
3097   119C 04                  INC B
3098   119D 44                  LD B,H
3099   119E 45                  LD B,L
3100   119F 46                  LD B,(HL)
3101   11A0 49                  LD C,C
3102   11A1 4E                  LD C,(HL)
3103   11A2 49                  LD C,C
3104   11A3 54                  LD D,H
3105   11A4 49                  LD C,C
3106   11A5 4F                  LD C,A
3107   11A6 4E                  LD C,(HL)
3108   11A7 D3 7C               OUT (7CH),A
3109   11A9 11 0B AD            LD DE,0AD0BH
3110   11AC 11 2A 33            LD DE,332AH
3111   11AF 3C                  INC A
3112   11B0 22 31 3C            LD (3C31H),HL
3113   11B3 FD E9               JP (IY)
3114   11B5 ED 53 33 3C         LD (3C33H),DE
3115   11B9 FD E9               JP (IY)
3116   11BB 49                  LD C,C
3117   11BC C6 E0               ADD A,0E0H
3118   11BE 13                  INC DE
3119   11BF 42                  LD B,D
3120   11C0 08                  EX AF,AF'
3121   11C1 11 83 12            LD DE,1283H
3122   11C4 60                  LD H,B
3123   11C5 04                  INC B
3124   11C6 4B                  LD C,E
3125   11C7 10 02               DJNZ L0290
3126   11C9 83                  ADD A,E
3127   11CA 0F                  RRCA
3128   11CB B6          L0290:  OR (HL)
3129   11CC 04                  INC B
3130   11CD 57                  LD D,A
3131   11CE 48                  LD C,B
3132   11CF 49                  LD C,C
3133   11D0 4C                  LD C,H
3134   11D1 C5                  PUSH BC
3135   11D2 BF                  CP A
3136   11D3 11 45 08            LD DE,0845H
3137   11D6 11 88 12            LD DE,1288H
3138   11D9 D8                  RET C
3139   11DA 12                  LD (DE),A
3140   11DB 01 60 04            LD BC,0460H
3141   11DE 4B                  LD C,E
3142   11DF 10 04               DJNZ L0291
3143   11E1 83                  ADD A,E
3144   11E2 0F                  RRCA
3145   11E3 B6                  OR (HL)
3146   11E4 04                  INC B
3147   11E5 45          L0291:  LD B,L
3148   11E6 4C                  LD C,H
3149   11E7 53                  LD D,E
3150   11E8 C5                  PUSH BC
3151   11E9 D4 11 44            CALL NC,L0292
3152   11EC 08                  EX AF,AF'
3153   11ED 11 71 12            LD DE,1271H
3154   11F0 D8                  RET C
3155   11F1 12                  LD (DE),A
3156   11F2 02                  LD (BC),A
3157   11F3 83                  ADD A,E
3158   11F4 0F                  RRCA
3159   11F5 25                  DEC H
3160   11F6 12                  LD (DE),A
3161   11F7 60                  LD H,B
3162   11F8 04                  INC B
3163   11F9 29                  ADD HL,HL
3164   11FA 0E 4B               LD C,4BH
3165   11FC 10 02               DJNZ L0293
3166   11FE B6                  OR (HL)
3167   11FF 04                  INC B
3168   1200 54          L0293:  LD D,H
3169   1201 48                  LD C,B
3170   1202 45                  LD B,L
3171   1203 CE EB               ADC A,0EBH
3172   1205 11 44 08            LD DE,0844H
3173   1208 11 A4 12            LD DE,12A4H
3174   120B D8                  RET C
3175   120C 12                  LD (DE),A
3176   120D 02                  LD (BC),A
3177   120E 25          L0194:  DEC H
3178   120F 12                  LD (DE),A
3179   1210 B6                  OR (HL)
3180   1211 04                  INC B
3181   1212 42                  LD B,D
3182   1213 45                  LD B,L
3183   1214 47                  LD B,A
3184   1215 49                  LD C,C
3185   1216 CE 06               ADC A,06H
3186   1218 12                  LD (DE),A
3187   1219 45          L0296:  LD B,L
3188   121A 08                  EX AF,AF'
3189   121B 11 9F 12            LD DE,129FH
3190   121E 60                  LD H,B
3191   121F 04                  INC B
3192   1220 4B                  LD C,E
3193   1221 10 01               DJNZ L0294
3194   1223 B6                  OR (HL)
3195   1224 04          L0294:  INC B
3196   1225 C3 0E 6B            JP L0201
3197   1228 08                  EX AF,AF'
3198   1229 60                  LD H,B
3199   122A 04                  INC B
3200   122B 85                  ADD A,L
3201   122C 08                  EX AF,AF'
3202   122D E1                  POP HL
3203   122E 0D                  DEC C
3204   122F 1F                  RRA
3205   1230 0E 85               LD C,85H
3206   1232 08                  EX AF,AF'
3207   1233 C1                  POP BC
3208   1234 08                  EX AF,AF'
3209   1235 B6                  OR (HL)
3210   1236 04                  INC B
3211   1237 C3 0E 60            JP L0295
3212   123A 04                  INC B
3213   123B E1                  POP HL
3214   123C 0D                  DEC C
3215   123D 1F                  RRA
3216   123E 0E 4E               LD C,4EH
3217   1240 0F                  RRCA
3218   1241 B6                  OR (HL)
3219   1242 04                  INC B
3220   1243 52                  LD D,D
3221   1244 45                  LD B,L
3222   1245 50                  LD D,B
3223   1246 45                  LD B,L
3224   1247 41                  LD B,C
3225   1248 D4 19 12            CALL NC,L0296
3226   124B 46          L0297:  LD B,(HL)
3227   124C 08                  EX AF,AF'
3228   124D 11 76 12            LD DE,1276H
3229   1250 D8                  RET C
3230   1251 12                  LD (DE),A
3231   1252 04                  INC B
3232   1253 85                  ADD A,L
3233   1254 08                  EX AF,AF'
3234   1255 37                  SCF
3235   1256 12                  LD (DE),A
3236   1257 25                  DEC H
3237   1258 12                  LD (DE),A
3238   1259 B6                  OR (HL)
3239   125A 04                  INC B
3240   125B 55                  LD D,L
3241   125C 4E                  LD C,(HL)
3242   125D 54                  LD D,H
3243   125E 49                  LD C,C
3244   125F CC 4B 12            CALL Z,L0297
3245   1262 45                  LD B,L
3246   1263 08                  EX AF,AF'
3247   1264 11 8D 12            LD DE,128DH
3248   1267 D8                  RET C
3249   1268 12                  LD (DE),A
3250   1269 01 37 12            LD BC,1237H
3251   126C B6                  OR (HL)
3252   126D 04                  INC B
3253   126E 02                  LD (BC),A
3254   126F 75                  LD (HL),L
3255   1270 FF                  RST 38H
3256   1271 78                  LD A,B
3257   1272 12                  LD (DE),A
3258   1273 02                  LD (BC),A
3259   1274 CE FF               ADC A,0FFH
3260   1276 78                  LD A,B
3261   1277 12                  LD (DE),A
3262   1278 E1          L0298:  POP HL
3263   1279 5E                  LD E,(HL)
3264   127A 23                  INC HL
3265   127B 56                  LD D,(HL)
3266   127C 19          L0311:  ADD HL,DE
3267   127D C3 BA 04            JP L0241
3268   1280 02                  LD (BC),A
3269   1281 39                  ADD HL,SP
3270   1282 FF                  RST 38H
3271   1283 8F                  ADC A,A
3272   1284 12                  LD (DE),A
3273   1285 02                  LD (BC),A
3274   1286 46                  LD B,(HL)
3275   1287 FF                  RST 38H
3276   1288 8F                  ADC A,A
3277   1289 12                  LD (DE),A
3278   128A 02                  LD (BC),A
3279   128B CF                  RST 08H
3280   128C FF                  RST 38H
3281   128D 8F                  ADC A,A
3282   128E 12                  LD (DE),A
3283   128F CD 4E 08            CALL L0157
3284   1292 78                  LD A,B
3285   1293 B1                  OR C
3286   1294 28 E2       L0308:  JR Z,L0298
3287   1296 E1                  POP HL
3288   1297 23                  INC HL
3289   1298 23                  INC HL
3290   1299 C3 BA 04            JP L0241
3291   129C 00                  NOP
3292   129D 74                  LD (HL),H
3293   129E FF                  RST 38H
3294   129F B9                  CP C
3295   12A0 04                  INC B
3296   12A1 00                  NOP
3297   12A2 5D                  LD E,L
3298   12A3 FF                  RST 38H
3299   12A4 B9                  CP C
3300   12A5 04                  INC B
3301   12A6 44                  LD B,H
3302   12A7 CF                  RST 08H
3303   12A8 62                  LD H,D
3304   12A9 12                  LD (DE),A
3305   12AA 42                  LD B,D
3306   12AB 08                  EX AF,AF'
3307   12AC 11 23 13            LD DE,1323H
3308   12AF 60                  LD H,B
3309   12B0 04                  INC B
3310   12B1 4B                  LD C,E
3311   12B2 10 03               DJNZ L0299
3312   12B4 B6                  OR (HL)
3313   12B5 04                  INC B
3314   12B6 4C                  LD C,H
3315   12B7 4F          L0299:  LD C,A
3316   12B8 4F                  LD C,A
3317   12B9 D0                  RET NC
3318   12BA AA                  XOR D
3319   12BB 12                  LD (DE),A
3320   12BC 44                  LD B,H
3321   12BD 08                  EX AF,AF'
3322   12BE 11 32 13            LD DE,1332H
3323   12C1 D8                  RET C
3324   12C2 12                  LD (DE),A
3325   12C3 03                  INC BC
3326   12C4 37                  SCF
3327   12C5 12                  LD (DE),A
3328   12C6 B6                  OR (HL)
3329   12C7 04                  INC B
3330   12C8 2B                  DEC HL
3331   12C9 4C                  LD C,H
3332   12CA 4F                  LD C,A
3333   12CB 4F                  LD C,A
3334   12CC D0                  RET NC
3335   12CD BC                  CP H
3336   12CE 12                  LD (DE),A
3337   12CF 45                  LD B,L
3338   12D0 08                  EX AF,AF'
3339   12D1 11 3C 13            LD DE,133CH
3340   12D4 76                  HALT
3341   12D5 12                  LD (DE),A
3342   12D6 EA FF DA            JP PE,L0300
3343   12D9 12                  LD (DE),A
3344   12DA DF                  RST 18H
3345   12DB E1                  POP HL
3346   12DC 7E                  LD A,(HL)
3347   12DD 23                  INC HL
3348   12DE E5                  PUSH HL
3349   12DF 93                  SUB E
3350   12E0 B2                  OR D
3351   12E1 28 4A               JR Z,L0301
3352   12E3 E7                  RST 20H
3353   12E4 05                  DEC B
3354   12E5 C9                  RET
3355   12E6 AA                  XOR D
3356   12E7 11 01 EB            LD DE,0EB01H
3357   12EA 12                  LD (DE),A
3358   12EB C1                  POP BC
3359   12EC D1                  POP DE
3360   12ED D5                  PUSH DE
3361   12EE C5                  PUSH BC
3362   12EF D7                  RST 10H
3363   12F0 FD E9               JP (IY)
3364   12F2 49                  LD C,C
3365   12F3 A7                  AND A
3366   12F4 E8                  RET PE
3367   12F5 12                  LD (DE),A
3368   12F6 02          L0303:  LD (BC),A
3369   12F7 F9                  LD SP,HL
3370   12F8 12                  LD (DE),A
3371   12F9 21 04 00            LD HL,0004H
3372   12FC 18 09               JR L0302
3373   12FE CA F6 12            JP Z,L0303
3374   1301 01 04 13            LD BC,1304H
3375   1304 21 06 00            LD HL,0006H
3376   1307 39          L0302:  ADD HL,SP
3377   1308 5E                  LD E,(HL)
3378   1309 23                  INC HL
3379   130A 56                  LD D,(HL)
3380   130B D7                  RST 10H
3381   130C FD E9               JP (IY)
3382   130E 4C                  LD C,H
3383   130F 45                  LD B,L
3384   1310 41                  LD B,C
3385   1311 56                  LD D,(HL)
3386   1312 C5                  PUSH BC
3387   1313 01 13 05            LD BC,0513H
3388   1316 18 13               JR L0304
3389   1318 C1                  POP BC
3390   1319 E1                  POP HL
3391   131A E1                  POP HL
3392   131B E5                  PUSH HL
3393   131C E5                  PUSH HL
3394   131D C5                  PUSH BC
3395   131E FD E9               JP (IY)
3396   1320 00                  NOP
3397   1321 84                  ADD A,H
3398   1322 FF                  RST 38H
3399   1323 25                  DEC H
3400   1324 13                  INC DE
3401   1325 CD 4E 08            CALL L0157
3402   1328 DF                  RST 18H
3403   1329 E1                  POP HL
3404   132A D5                  PUSH DE
3405   132B C5          L0304:  PUSH BC
3406   132C E5                  PUSH HL
3407   132D FD E9       L0301:  JP (IY)
3408   132F 02                  LD (BC),A
3409   1330 85                  ADD A,L
3410   1331 FF                  RST 38H
3411   1332 34                  INC (HL)
3412   1333 13                  INC DE
3413   1334 11 01 00            LD DE,0001H
3414   1337 18 06               JR L0305
3415   1339 02                  LD (BC),A
3416   133A 8D                  ADC A,L
3417   133B FF                  RST 38H
3418   133C 3E 13               LD A,13H
3419   133E DF                  RST 18H
3420   133F C1          L0305:  POP BC
3421   1340 E1                  POP HL
3422   1341 A7                  AND A
3423   1342 ED 5A               ADC HL,DE
3424   1344 7A                  LD A,D
3425   1345 D1                  POP DE
3426   1346 37                  SCF
3427   1347 EA 58 13            JP PE,L0306
3428   134A D5                  PUSH DE
3429   134B E5                  PUSH HL
3430   134C 07                  RLCA
3431   134D 30 01               JR NC,L0307
3432   134F EB                  EX DE,HL
3433   1350 CD 99 0C    L0307:  CALL L0206
3434   1353 3F                  CCF
3435   1354 30 02               JR NC,L0306
3436   1356 E1                  POP HL
3437   1357 E1                  POP HL
3438   1358 C5          L0306:  PUSH BC
3439   1359 9F                  SBC A,A
3440   135A C3 94 12            JP L0308
3441   135D A8                  XOR B
3442   135E D4 13 41            CALL NC,L0309
3443   1361 08                  EX AF,AF'
3444   1362 11 79 13            LD DE,1379H
3445   1365 4B                  LD C,E
3446   1366 10 29               DJNZ L0310
3447   1368 60                  LD H,B
3448   1369 04                  INC B
3449   136A 85                  ADD A,L
3450   136B 08                  EX AF,AF'
3451   136C 83                  ADD A,E
3452   136D 0F                  RRCA
3453   136E 9F                  SBC A,A
3454   136F 13                  INC DE
3455   1370 85                  ADD A,L
3456   1371 08                  EX AF,AF'
3457   1372 C1                  POP BC
3458   1373 08                  EX AF,AF'
3459   1374 B6                  OR (HL)
3460   1375 04                  INC B
3461   1376 FF                  RST 38H
3462   1377 E5                  PUSH HL
3463   1378 FF                  RST 38H
3464   1379 7B                  LD A,E
3465   137A 13                  INC DE
3466   137B E1                  POP HL
3467   137C 5E                  LD E,(HL)
3468   137D 23                  INC HL
3469   137E 56                  LD D,(HL)
3470   137F 13                  INC DE
3471   1380 C3 7C 12            JP L0311
3472   1383 2E A2               LD L,0A2H
3473   1385 60                  LD H,B
3474   1386 13                  INC DE
3475   1387 42          L0317:  LD B,D
3476   1388 08                  EX AF,AF'
3477   1389 11 96 13            LD DE,1396H
3478   138C 4B                  LD C,E
3479   138D 10 22               DJNZ L0312
3480   138F 76                  HALT
3481   1390 12                  LD (DE),A
3482   1391 D6 FF       L0310:  SUB 0FFH
3483   1393 FF                  RST 38H
3484   1394 EE FF               XOR 0FFH
3485   1396 98                  SBC A,B
3486   1397 13                  INC DE
3487   1398 D1                  POP DE
3488   1399 CD 79 09            CALL L0313
3489   139C D5                  PUSH DE
3490   139D FD E9               JP (IY)
3491   139F A1                  AND C
3492   13A0 13                  INC DE
3493   13A1 DF          L0316:  RST 18H
3494   13A2 D5                  PUSH DE
3495   13A3 CD E1 05            CALL L0107
3496   13A6 62                  LD H,D
3497   13A7 6B                  LD L,E
3498   13A8 09                  ADD HL,BC
3499   13A9 7E                  LD A,(HL)
3500   13AA E1                  POP HL
3501   13AB BD                  CP L
3502   13AC 28 0A               JR Z,L0314
3503   13AE EB                  EX DE,HL
3504   13AF D7                  RST 10H
3505   13B0 11 78 05            LD DE,0578H
3506   13B3 CD 15 18            CALL L0315
3507   13B6 18 E9               JR L0316
3508   13B8 D5          L0314:  PUSH DE
3509   13B9 C5                  PUSH BC
3510   13BA 2A 37 3C            LD HL,(3C37H)
3511   13BD CD 9E 0F            CALL L0245
3512   13C0 C1                  POP BC
3513   13C1 D1                  POP DE
3514   13C2 D5                  PUSH DE
3515   13C3 C5                  PUSH BC
3516   13C4 EB                  EX DE,HL
3517   13C5 ED B0               LDIR
3518   13C7 C1                  POP BC
3519   13C8 50                  LD D,B
3520   13C9 59                  LD E,C
3521   13CA D7                  RST 10H
3522   13CB D1                  POP DE
3523   13CC CD DA 07            CALL L0110
3524   13CF FD E9               JP (IY)
3525   13D1 DB CF               IN A,(0CFH)
3526   13D3 12                  LD (DE),A
3527   13D4 41                  LD B,C
3528   13D5 D7                  RST 10H
3529   13D6 13                  INC DE
3530   13D7 DD CB 3E B6         RES 6,(IX+3EH)
3531   13DB FD E9               JP (IY)
3532   13DD DD                  .DB 0DDH ;UNRECOGNIZED
3533   13DE 15                  DEC D
3534   13DF 13                  INC DE
3535   13E0 01 E3 13            LD BC,13E3H
3536   13E3 DD CB 3E F6         SET 6,(IX+3EH)
3537   13E7 FD E9               JP (IY)
3538   13E9 45                  LD B,L
3539   13EA 58                  LD E,B
3540   13EB 49                  LD C,C
3541   13EC D4 87 13            CALL NC,L0317
3542   13EF 04                  INC B
3543   13F0 B8                  CP B
3544   13F1 04                  INC B
3545   13F2 52                  LD D,D
3546   13F3 45                  LD B,L
3547   13F4 44                  LD B,H
3548   13F5 45                  LD B,L
3549   13F6 46                  LD B,(HL)
3550   13F7 49                  LD C,C
3551   13F8 4E                  LD C,(HL)
3552   13F9 C5                  PUSH BC
3553   13FA EF                  RST 28H
3554   13FB 13                  INC DE
3555   13FC 08          L0345:  EX AF,AF'
3556   13FD FF                  RST 38H
3557   13FE 13                  INC DE
3558   13FF CD 2E 0F            CALL L0318
3559   1402 2A 31 3C            LD HL,(3C31H)
3560   1405 5E                  LD E,(HL)
3561   1406 23                  INC HL
3562   1407 56                  LD D,(HL)
3563   1408 EB                  EX DE,HL
3564   1409 23                  INC HL
3565   140A 22 05 27            LD (2705H),HL
3566   140D E5                  PUSH HL
3567   140E CD C0 15            CALL L0319
3568   1411 22 0D 27            LD (270DH),HL
3569   1414 ED 43 07 27         LD (2707H),BC
3570   1418 ED 53 0B 27         LD (270BH),DE
3571   141C 2A 37 3C            LD HL,(3C37H)
3572   141F ED 52               SBC HL,DE
3573   1421 C2 DA 14            JP NZ,L0320
3574   1424 D1                  POP DE
3575   1425 D7                  RST 10H
3576   1426 CD B9 04            CALL L0018
3577   1429 10 16               DJNZ L0321
3578   142B 3D                  DEC A
3579   142C 06 0E               LD B,0EH
3580   142E 1A                  LD A,(DE)
3581   142F DF                  RST 18H
3582   1430 21 AF C3            LD HL,0C3AFH
3583   1433 19                  ADD HL,DE
3584   1434 D2 CF 14            JP NC,L0322
3585   1437 EB                  EX DE,HL
3586   1438 22 03 27            LD (2703H),HL
3587   143B CD C0 15            CALL L0319
3588   143E 22 01 27            LD (2701H),HL
3589   1441 E5          L0321:  PUSH HL
3590   1442 ED 53 09 27         LD (2709H),DE
3591   1446 78                  LD A,B
3592   1447 B1                  OR C
3593   1448 ED 5B 07 27         LD DE,(2707H)
3594   144C 28 04               JR Z,L0323
3595   144E 7A                  LD A,D
3596   144F B3                  OR E
3597   1450 28 7D               JR Z,L0322
3598   1452 E1          L0323:  POP HL
3599   1453 ED 4B 0D 27         LD BC,(270DH)
3600   1457 ED 42               SBC HL,BC
3601   1459 EB                  EX DE,HL
3602   145A 19                  ADD HL,DE
3603   145B 22 07 27            LD (2707H),HL
3604   145E 2A 0B 27            LD HL,(270BH)
3605   1461 19                  ADD HL,DE
3606   1462 ED 4B 09 27         LD BC,(2709H)
3607   1466 A7                  AND A
3608   1467 ED 42               SBC HL,BC
3609   1469 22 0B 27            LD (270BH),HL
3610   146C 01 2E 00            LD BC,002EH
3611   146F 09                  ADD HL,BC
3612   1470 CB 7C               BIT 7,H
3613   1472 20 0B               JR NZ,L0324
3614   1474 ED 4B 3B 3C         LD BC,(3C3BH)
3615   1478 09                  ADD HL,BC
3616   1479 38 54               JR C,L0322
3617   147B ED 72               SBC HL,SP
3618   147D 30 50               JR NC,L0322
3619   147F 2A 03 27    L0324:  LD HL,(2703H)
3620   1482 E5                  PUSH HL
3621   1483 2B                  DEC HL
3622   1484 2B                  DEC HL
3623   1485 46                  LD B,(HL)
3624   1486 2B                  DEC HL
3625   1487 4E                  LD C,(HL)
3626   1488 2A 05 27            LD HL,(2705H)
3627   148B E5                  PUSH HL
3628   148C 2B                  DEC HL
3629   148D 2B                  DEC HL
3630   148E 70                  LD (HL),B
3631   148F 2B                  DEC HL
3632   1490 71                  LD (HL),C
3633   1491 E1                  POP HL
3634   1492 19                  ADD HL,DE
3635   1493 C1                  POP BC
3636   1494 A7                  AND A
3637   1495 ED 42               SBC HL,BC
3638   1497 22 05 27            LD (2705H),HL
3639   149A ED 5B 01 27         LD DE,(2701H)
3640   149E 2A 09 27            LD HL,(2709H)
3641   14A1 A7                  AND A
3642   14A2 ED 52               SBC HL,DE
3643   14A4 44                  LD B,H
3644   14A5 4D                  LD C,L
3645   14A6 D5                  PUSH DE
3646   14A7 C5                  PUSH BC
3647   14A8 CD DC 14            CALL L0325
3648   14AB 2A 0B 27            LD HL,(270BH)
3649   14AE C1                  POP BC
3650   14AF 09                  ADD HL,BC
3651   14B0 44                  LD B,H
3652   14B1 4D                  LD C,L
3653   14B2 E1                  POP HL
3654   14B3 C5                  PUSH BC
3655   14B4 CD 9E 0F            CALL L0245
3656   14B7 EB                  EX DE,HL
3657   14B8 2A 0D 27            LD HL,(270DH)
3658   14BB ED 4B 0B 27         LD BC,(270BH)
3659   14BF 09                  ADD HL,BC
3660   14C0 C1                  POP BC
3661   14C1 C5                  PUSH BC
3662   14C2 E5                  PUSH HL
3663   14C3 ED B0               LDIR
3664   14C5 D1                  POP DE
3665   14C6 C1                  POP BC
3666   14C7 CD DC 14            CALL L0325
3667   14CA CD F8 14            CALL L0326
3668   14CD FD E9               JP (IY)
3669   14CF 2A 31 3C    L0322:  LD HL,(3C31H)
3670   14D2 ED 5B 05 27         LD DE,(2705H)
3671   14D6 1B                  DEC DE
3672   14D7 73                  LD (HL),E
3673   14D8 23                  INC HL
3674   14D9 72                  LD (HL),D
3675   14DA E7          L0320:  RST 20H
3676   14DB 0B                  DEC BC
3677   14DC 2A 37 3C    L0325:  LD HL,(3C37H)
3678   14DF A7                  AND A
3679   14E0 ED 42               SBC HL,BC
3680   14E2 22 37 3C            LD (3C37H),HL
3681   14E5 2A 3B 3C            LD HL,(3C3BH)
3682   14E8 ED 42               SBC HL,BC
3683   14EA 22 3B 3C            LD (3C3BH),HL
3684   14ED ED 52               SBC HL,DE
3685   14EF C8                  RET Z
3686   14F0 C5                  PUSH BC
3687   14F1 44                  LD B,H
3688   14F2 4D                  LD C,L
3689   14F3 E1                  POP HL
3690   14F4 19                  ADD HL,DE
3691   14F5 ED B0               LDIR
3692   14F7 C9                  RET
3693   14F8 01 31 3C    L0326:  LD BC,3C31H
3694   14FB CD 57 15            CALL L0327
3695   14FE CD 57 15            CALL L0327
3696   1501 01 40 3C            LD BC,3C40H
3697   1504 2A 37 3C    L0332:  LD HL,(3C37H)
3698   1507 37                  SCF
3699   1508 ED 42               SBC HL,BC
3700   150A D8                  RET C
3701   150B 0A          L0328:  LD A,(BC)
3702   150C 17                  RLA
3703   150D 03                  INC BC
3704   150E 30 FB               JR NC,L0328
3705   1510 03                  INC BC
3706   1511 03                  INC BC
3707   1512 CD 57 15            CALL L0327
3708   1515 03                  INC BC
3709   1516 CD 57 15            CALL L0327
3710   1519 CD FB 15            CALL L0329
3711   151C C3 0E 1C            JP L0330
3712   151F 85                  ADD A,L
3713   1520 10 16               DJNZ L0331
3714   1522 08                  EX AF,AF'
3715   1523 11 13 B5            LD DE,0B513H
3716   1526 11 18 00            LD DE,0018H
3717   1529 00                  NOP
3718   152A 21 F9 FF            LD HL,0FFF9H
3719   152D 09                  ADD HL,BC
3720   152E 4E                  LD C,(HL)
3721   152F 23                  INC HL
3722   1530 46                  LD B,(HL)
3723   1531 2B                  DEC HL
3724   1532 09                  ADD HL,BC
3725   1533 44                  LD B,H
3726   1534 4D                  LD C,L
3727   1535 18 CD               JR L0332
3728   1537 CD 57 15            CALL L0327
3729   153A CD 48 15            CALL L0333
3730   153D 18 C5               JR L0332
3731   153F CD 57 15            CALL L0327
3732   1542 03                  INC BC
3733   1543 CD 57 15            CALL L0327
3734   1546 18 BC               JR L0332
3735   1548 CD 57 15    L0333:  CALL L0327
3736   154B 21 B6 04            LD HL,04B6H
3737   154E A7                  AND A
3738   154F ED 52               SBC HL,DE
3739   1551 C8                  RET Z
3740   1552 CD 9E 15            CALL L0288
3741   1555 18 F1               JR L0333
3742   1557 0A          L0327:  LD A,(BC)
3743   1558 5F                  LD E,A
3744   1559 03                  INC BC
3745   155A 0A                  LD A,(BC)
3746   155B 57                  LD D,A
3747   155C 0B                  DEC BC
3748   155D CD 68 15            CALL L0334
3749   1560 EB                  EX DE,HL
3750   1561 7B                  LD A,E
3751   1562 02                  LD (BC),A
3752   1563 03                  INC BC
3753   1564 7A                  LD A,D
3754   1565 02                  LD (BC),A
3755   1566 03                  INC BC
3756   1567 C9                  RET
3757   1568 2A 01 27    L0334:  LD HL,(2701H)
3758   156B A7                  AND A
3759   156C ED 52               SBC HL,DE
3760   156E 62                  LD H,D
3761   156F 6B                  LD L,E
3762   1570 D0                  RET NC
3763   1571 2A 09 27            LD HL,(2709H)
3764   1574 ED 52               SBC HL,DE
3765   1576 30 0C               JR NC,L0335
3766   1578 2A 0D 27            LD HL,(270DH)
3767   157B ED 52               SBC HL,DE
3768   157D 38 13               JR C,L0336
3769   157F 2A 0B 27            LD HL,(270BH)
3770   1582 19                  ADD HL,DE
3771   1583 C9                  RET
3772   1584 2A 03 27    L0335:  LD HL,(2703H)
3773   1587 ED 52               SBC HL,DE
3774   1589 2A 07 27            LD HL,(2707H)
3775   158C D8                  RET C
3776   158D 2A 05 27            LD HL,(2705H)
3777   1590 19                  ADD HL,DE
3778   1591 C9                  RET
3779   1592 2A 01 27    L0336:  LD HL,(2701H)
3780   1595 19                  ADD HL,DE
3781   1596 ED 5B 0D 27         LD DE,(270DH)
3782   159A A7                  AND A
3783   159B ED 52               SBC HL,DE
3784   159D C9                  RET
3785   159E 1B          L0288:  DEC DE
3786   159F 1A                  LD A,(DE)
3787   15A0 17                  RLA
3788   15A1 D0                  RET NC
3789   15A2 1B          L0380:  DEC DE
3790   15A3 1B                  DEC DE
3791   15A4 1A                  LD A,(DE)
3792   15A5 6F                  LD L,A
3793   15A6 26 00               LD H,00H
3794   15A8 3C                  INC A
3795   15A9 20 06               JR NZ,L0337
3796   15AB 0A                  LD A,(BC)
3797   15AC 6F                  LD L,A
3798   15AD 03                  INC BC
3799   15AE 0A                  LD A,(BC)
3800   15AF 67                  LD H,A
3801   15B0 03                  INC BC
3802   15B1 09          L0337:  ADD HL,BC
3803   15B2 44                  LD B,H
3804   15B3 4D                  LD C,L
3805   15B4 C9                  RET
3806   15B5 B7                  OR A
3807   15B6 15                  DEC D
3808   15B7 DF                  RST 18H
3809   15B8 EB                  EX DE,HL
3810   15B9 CD E7 15            CALL L0338
3811   15BC EB                  EX DE,HL
3812   15BD D7                  RST 10H
3813   15BE FD E9               JP (IY)
3814   15C0 E5          L0319:  PUSH HL
3815   15C1 5E                  LD E,(HL)
3816   15C2 23                  INC HL
3817   15C3 56                  LD D,(HL)
3818   15C4 CD FB 15            CALL L0329
3819   15C7 08                  EX AF,AF'
3820   15C8 11 0B 85            LD DE,850BH
3821   15CB 10 08               DJNZ L0339
3822   15CD 00                  NOP
3823   15CE 00                  NOP
3824   15CF 01 00 00            LD BC,0000H
3825   15D2 18 07               JR L0340
3826   15D4 E1                  POP HL
3827   15D5 E5          L0339:  PUSH HL
3828   15D6 23                  INC HL
3829   15D7 23                  INC HL
3830   15D8 4E                  LD C,(HL)
3831   15D9 23                  INC HL
3832   15DA 46                  LD B,(HL)
3833   15DB E1          L0340:  POP HL
3834   15DC E5                  PUSH HL
3835   15DD 2B                  DEC HL
3836   15DE 2B                  DEC HL
3837   15DF 2B                  DEC HL
3838   15E0 2B                  DEC HL
3839   15E1 56                  LD D,(HL)
3840   15E2 2B                  DEC HL
3841   15E3 5E                  LD E,(HL)
3842   15E4 19                  ADD HL,DE
3843   15E5 EB                  EX DE,HL
3844   15E6 E1                  POP HL
3845   15E7 2B          L0338:  DEC HL
3846   15E8 7C          L0122:  LD A,H
3847   15E9 FE 3C               CP 3CH
3848   15EB 7E                  LD A,(HL)
3849   15EC CB B7               RES 6,A
3850   15EE 38 02               JR C,L0341
3851   15F0 C6 02               ADD A,02H
3852   15F2 2B          L0341:  DEC HL
3853   15F3 2B                  DEC HL
3854   15F4 2B          L0342:  DEC HL
3855   15F5 3D                  DEC A
3856   15F6 20 FC               JR NZ,L0342
3857   15F8 C9                  RET
3858   15F9 23          L0343:  INC HL
3859   15FA E5                  PUSH HL
3860   15FB E1          L0329:  POP HL
3861   15FC 7E                  LD A,(HL)
3862   15FD 23                  INC HL
3863   15FE E5                  PUSH HL
3864   15FF 66                  LD H,(HL)
3865   1600 6F                  LD L,A
3866   1601 B4                  OR H
3867   1602 C8                  RET Z
3868   1603 ED 52               SBC HL,DE
3869   1605 E1                  POP HL
3870   1606 23                  INC HL
3871   1607 20 F0               JR NZ,L0343
3872   1609 D5                  PUSH DE
3873   160A 16 00               LD D,00H
3874   160C 5E                  LD E,(HL)
3875   160D 19                  ADD HL,DE
3876   160E D1                  POP DE
3877   160F E9                  JP (HL)
3878   1610 C3 0E 1F            JP L0344
3879   1613 0E 29               LD C,29H
3880   1615 0E B3               LD C,0B3H
3881   1617 08                  EX AF,AF'
3882   1618 80                  ADD A,B
3883   1619 04                  INC B
3884   161A B3                  OR E
3885   161B 08                  EX AF,AF'
3886   161C C1                  POP BC
3887   161D 08                  EX AF,AF'
3888   161E B6                  OR (HL)
3889   161F 04                  INC B
3890   1620 CD B9 04    L0346:  CALL L0018
3891   1623 3D                  DEC A
3892   1624 06 0E               LD B,0EH
3893   1626 1A                  LD A,(DE)
3894   1627 DF                  RST 18H
3895   1628 21 AF C3            LD HL,0C3AFH
3896   162B 19                  ADD HL,DE
3897   162C D8                  RET C
3898   162D E7                  RST 20H
3899   162E 0D                  DEC C
3900   162F 46                  LD B,(HL)
3901   1630 4F                  LD C,A
3902   1631 52                  LD D,D
3903   1632 47                  LD B,A
3904   1633 45                  LD B,L
3905   1634 D4 FC 13            CALL NC,L0345
3906   1637 06 3A       L0347:  LD B,3AH
3907   1639 16 2A               LD D,2AH
3908   163B 31 3C ED            LD SP,0ED3CH
3909   163E 5B                  LD E,E
3910   163F 33                  INC SP
3911   1640 3C                  INC A
3912   1641 A7                  AND A
3913   1642 ED 52               SBC HL,DE
3914   1644 C2 DA 14            JP NZ,L0320
3915   1647 CD 20 16            CALL L0346
3916   164A 21 FB FF            LD HL,0FFFBH
3917   164D 19                  ADD HL,DE
3918   164E 22 39 3C            LD (3C39H),HL
3919   1651 DD CB 3E D6         SET 2,(IX+3EH)
3920   1655 E7                  RST 20H
3921   1656 FF                  RST 38H
3922   1657 45                  LD B,L
3923   1658 44                  LD B,H
3924   1659 49                  LD C,C
3925   165A D4 37 16            CALL NC,L0347
3926   165D 04          L0350:  INC B
3927   165E 60                  LD H,B
3928   165F 16 CD               LD D,0CDH
3929   1661 20 16               JR NZ,L0348
3930   1663 DD CB 3E DE         SET 3,(IX+3EH)
3931   1667 18 0C               JR L0349
3932   1669 4C                  LD C,H
3933   166A 49                  LD C,C
3934   166B 53                  LD D,E
3935   166C D4 5D 16            CALL NC,L0350
3936   166F 04                  INC B
3937   1670 72                  LD (HL),D
3938   1671 16 CD               LD D,0CDH
3939   1673 20 16               JR NZ,L0351
3940   1675 3E 0D       L0349:  LD A,0DH
3941   1677 CF                  RST 08H
3942   1678 DD CB 3E 5E         BIT 3,(IX+3EH)
3943   167C D5                  PUSH DE
3944   167D C4 D8 02            CALL NZ,L0103
3945   1680 C1                  POP BC
3946   1681 0A                  LD A,(BC)
3947   1682 5F                  LD E,A
3948   1683 03                  INC BC
3949   1684 0A                  LD A,(BC)
3950   1685 57                  LD D,A
3951   1686 0B                  DEC BC
3952   1687 CD FB 15            CALL L0329
3953   168A C3 0E 0B            JP L0352
3954   168D 08                  EX AF,AF'
3955   168E 11 0D 85            LD DE,850DH
3956   1691 10 1F               DJNZ L0353
3957   1693 00                  NOP
3958   1694 00                  NOP
3959   1695 E7                  RST 20H
3960   1696 0E 21               LD C,21H
3961   1698 02                  LD (BC),A
3962   1699 00                  NOP
3963   169A 18 18               JR L0354
3964   169C D5                  PUSH DE
3965   169D 21 02 00            LD HL,0002H
3966   16A0 09                  ADD HL,BC
3967   16A1 7E                  LD A,(HL)
3968   16A2 23                  INC HL
3969   16A3 66                  LD H,(HL)
3970   16A4 6F                  LD L,A
3971   16A5 2B                  DEC HL
3972   16A6 2B                  DEC HL
3973   16A7 2B                  DEC HL
3974   16A8 6E                  LD L,(HL)
3975   16A9 7D                  LD A,L
3976   16AA 07                  RLCA
3977   16AB 9F                  SBC A,A
3978   16AC 67                  LD H,A
3979   16AD CD 0E 18            CALL L0187
3980   16B0 D1                  POP DE
3981   16B1 21 04 00            LD HL,0004H
3982   16B4 09                  ADD HL,BC
3983   16B5 E5                  PUSH HL
3984   16B6 C5                  PUSH BC
3985   16B7 CD E4 17            CALL L0355
3986   16BA D1                  POP DE
3987   16BB C1                  POP BC
3988   16BC CD E4 17            CALL L0355
3989   16BF DD 36 14 01         LD (IX+14H),01H
3990   16C3 DD 36 16 10 L0362:  LD (IX+16H),10H
3991   16C7 CD 08 17    L0358:  CALL L0356
3992   16CA 38 06               JR C,L0357
3993   16CC DD 35 16            DEC (IX+16H)
3994   16CF F2 C7 16            JP P,L0358
3995   16D2 DD CB 3E 5E L0357:  BIT 3,(IX+3EH)
3996   16D6 20 10               JR NZ,L0359
3997   16D8 38 28               JR C,L0360
3998   16DA 21 26 3C            LD HL,3C26H
3999   16DD 36 00               LD (HL),00H
4000   16DF 7E          L0361:  LD A,(HL)
4001   16E0 A7                  AND A
4002   16E1 28 FC               JR Z,L0361
4003   16E3 CD E4 04            CALL L0094
4004   16E6 18 DB               JR L0362
4005   16E8 F5          L0359:  PUSH AF
4006   16E9 DD CB 3E 9E         RES 3,(IX+3EH)
4007   16ED C5                  PUSH BC
4008   16EE CD B9 04            CALL L0018
4009   16F1 78                  LD A,B
4010   16F2 05                  DEC B
4011   16F3 06 05               LD B,05H
4012   16F5 0E 1A               LD C,1AH
4013   16F7 DD CB 3E DE         SET 3,(IX+3EH)
4014   16FB CD D8 02            CALL L0103
4015   16FE C1                  POP BC
4016   16FF F1                  POP AF
4017   1700 30 C1               JR NC,L0362
4018   1702 DD CB 3E 9E L0360:  RES 3,(IX+3EH)
4019   1706 FD E9               JP (IY)
4020   1708 3A 14 3C    L0356:  LD A,(3C14H)
4021   170B 32 15 3C            LD (3C15H),A
4022   170E DD 36 13 05         LD (IX+13H),05H
4023   1712 0A          L0369:  LD A,(BC)
4024   1713 5F                  LD E,A
4025   1714 03                  INC BC
4026   1715 0A                  LD A,(BC)
4027   1716 57                  LD D,A
4028   1717 03                  INC BC
4029   1718 CD FB 15            CALL L0329
4030   171B 83                  ADD A,E
4031   171C 12                  LD (DE),A
4032   171D 40                  LD B,B
4033   171E 71                  LD (HL),C
4034   171F 12                  LD (DE),A
4035   1720 44                  LD B,H
4036   1721 A4                  AND H
4037   1722 12                  LD (DE),A
4038   1723 48                  LD C,B
4039   1724 9F                  SBC A,A
4040   1725 12                  LD (DE),A
4041   1726 37                  SCF
4042   1727 8D                  ADC A,L
4043   1728 12                  LD (DE),A
4044   1729 42                  LD B,D
4045   172A 88                  ADC A,B
4046   172B 12                  LD (DE),A
4047   172C 38 76               JR C,L0363
4048   172E 12                  LD (DE),A
4049   172F 3C                  INC A
4050   1730 23                  INC HL
4051   1731 13                  INC DE
4052   1732 2B                  DEC HL
4053   1733 32 13 36            LD (3613H),A
4054   1736 3C                  INC A
4055   1737 13                  INC DE
4056   1738 33                  INC SP
4057   1739 E8                  RET PE
4058   173A 10 29               DJNZ L0364
4059   173C 40                  LD B,B
4060   173D 11 26 11            LD DE,1126H
4061   1740 10 3B               DJNZ L0365
4062   1742 64                  LD H,H
4063   1743 10 47               DJNZ L0366
4064   1745 4B                  LD C,E
4065   1746 10 51               DJNZ L0367
4066   1748 79                  LD A,C
4067   1749 13                  INC DE
4068   174A 62                  LD H,D
4069   174B 96                  SUB (HL)
4070   174C 13                  INC DE
4071   174D 63                  LD H,E
4072   174E B6                  OR (HL)
4073   174F 04                  INC B
4074   1750 54                  LD D,H
4075   1751 00                  NOP
4076   1752 00                  NOP
4077   1753 CD E1 17    L0371:  CALL L0368
4078   1756 DD 35 13    L0374:  DEC (IX+13H)
4079   1759 20 B7               JR NZ,L0369
4080   175B A7                  AND A
4081   175C C9                  RET
4082   175D 2A 14 3C            LD HL,(3C14H)
4083   1760 65                  LD H,L
4084   1761 2C                  INC L
4085   1762 18 0C               JR L0370
4086   1764 2A 14 3C            LD HL,(3C14H)
4087   1767 65                  LD H,L
4088   1768 25                  DEC H
4089   1769 18 05               JR L0370
4090   176B 2A 14 3C            LD HL,(3C14H)
4091   176E 2D                  DEC L
4092   176F 65                  LD H,L
4093   1770 22 14 3C    L0370:  LD (3C14H),HL
4094   1773 DD 36 13 01         LD (IX+13H),01H
4095   1777 DD 35 16            DEC (IX+16H)
4096   177A 18 D7               JR L0371
4097   177C CD DA 17            CALL L0372
4098   177F D7                  RST 10H
4099   1780 11 B3 09            LD DE,09B3H
4100   1783 CD C1 17    L0375:  CALL L0373
4101   1786 CD 15 18            CALL L0315
4102   1789 18 CB               JR L0374
4103   178B CD DA 17            CALL L0372
4104   178E D7                  RST 10H
4105   178F CD DA 17            CALL L0372
4106   1792 D7                  RST 10H
4107   1793 11 AF 0A            LD DE,0AAFH
4108   1796 18 EB               JR L0375
4109   1798 0A                  LD A,(BC)
4110   1799 F5          L0367:  PUSH AF
4111   179A CD E1 17            CALL L0368
4112   179D F1                  POP AF
4113   179E CF                  RST 08H
4114   179F 3E 20               LD A,20H
4115   17A1 CF                  RST 08H
4116   17A2 18 B2               JR L0374
4117   17A4 CD 08 18    L0363:  CALL L0023
4118   17A7 0D                  DEC C
4119   17A8 3B                  DEC SP
4120   17A9 8D                  ADC A,L
4121   17AA 37                  SCF
4122   17AB C9                  RET
4123   17AC 3E 29               LD A,29H
4124   17AE 18 02               JR L0376
4125   17B0 3E 22               LD A,22H
4126   17B2 F5          L0376:  PUSH AF
4127   17B3 C5                  PUSH BC
4128   17B4 CD E1 17            CALL L0368
4129   17B7 D1                  POP DE
4130   17B8 CD 79 09            CALL L0313
4131   17BB 42                  LD B,D
4132   17BC 4B                  LD C,E
4133   17BD F1                  POP AF
4134   17BE CF                  RST 08H
4135   17BF A7                  AND A
4136   17C0 C9                  RET
4137   17C1 3A 15 3C    L0373:  LD A,(3C15H)
4138   17C4 A7                  AND A
4139   17C5 F8                  RET M
4140   17C6 C5                  PUSH BC
4141   17C7 47                  LD B,A
4142   17C8 3E 0D               LD A,0DH
4143   17CA CF                  RST 08H
4144   17CB 04                  INC B
4145   17CC 05                  DEC B
4146   17CD 28 05               JR Z,L0377
4147   17CF 3E 20       L0378:  LD A,20H
4148   17D1 CF                  RST 08H
4149   17D2 10 FB               DJNZ L0378
4150   17D4 DD 36 15 FF L0377:  LD (IX+15H),0FFH
4151   17D8 C1                  POP BC
4152   17D9 C9                  RET
4153   17DA 0A          L0372:  LD A,(BC)
4154   17DB 5F                  LD E,A
4155   17DC 03                  INC BC
4156   17DD 0A                  LD A,(BC)
4157   17DE 57                  LD D,A
4158   17DF 03          L0382:  INC BC
4159   17E0 C9                  RET
4160   17E1 CD C1 17    L0368:  CALL L0373
4161   17E4 EB          L0355:  EX DE,HL
4162   17E5 2B                  DEC HL
4163   17E6 7E                  LD A,(HL)
4164   17E7 CB 7F               BIT 7,A
4165   17E9 20 05               JR NZ,L0379
4166   17EB CD E8 15            CALL L0122
4167   17EE 18 0B               JR L0126
4168   17F0 EB          L0379:  EX DE,HL
4169   17F1 CD A2 15            CALL L0380
4170   17F4 13                  INC DE
4171   17F5 1A                  LD A,(DE)
4172   17F6 6F                  LD L,A
4173   17F7 13                  INC DE
4174   17F8 1A                  LD A,(DE)
4175   17F9 67                  LD H,A
4176   17FA 19                  ADD HL,DE
4177   17FB 7E          L0126:  LD A,(HL)
4178   17FC E6 7F               AND 7FH
4179   17FE CF                  RST 08H
4180   17FF CB 7E               BIT 7,(HL)
4181   1801 23                  INC HL
4182   1802 28 F7               JR Z,L0126
4183   1804 3E 20               LD A,20H
4184   1806 CF                  RST 08H
4185   1807 C9                  RET
4186   1808 E3          L0023:  EX (SP),HL
4187   1809 CD FB 17            CALL L0126
4188   180C E3                  EX (SP),HL
4189   180D C9                  RET
4190   180E 11 B3 09    L0187:  LD DE,09B3H
4191   1811 D5                  PUSH DE
4192   1812 EB                  EX DE,HL
4193   1813 D7                  RST 10H
4194   1814 D1                  POP DE
4195   1815 C5          L0315:  PUSH BC
4196   1816 CD BF 04            CALL L0100
4197   1819 1B                  DEC DE
4198   181A 18 1D               JR L0381
4199   181C 18 C1               JR L0382
4200   181E C1                  POP BC
4201   181F C9                  RET
4202   1820 FD E5       L0420:  PUSH IY
4203   1822 E5                  PUSH HL
4204   1823 FD E1               POP IY
4205   1825 21 92 18            LD HL,1892H
4206   1828 E5                  PUSH HL
4207   1829 21 00 E0            LD HL,0E000H
4208   182C CB 79               BIT 7,C
4209   182E 28 02               JR Z,L0383
4210   1830 26 FC               LD H,0FCH
4211   1832 13          L0383:  INC DE
4212   1833 FD 2B               DEC IY
4213   1835 F3                  DI
4214   1836 AF                  XOR A
4215   1837 06 97       L0385:  LD B,97H
4216   1839 10 FE       L0381:  DJNZ L0381
4217   183B D3 FE               OUT (0FEH),A
4218   183D EE 08               XOR 08H
4219   183F 2C                  INC L
4220   1840 20 01               JR NZ,L0384
4221   1842 24                  INC H
4222   1843 20 F2       L0384:  JR NZ,L0385
4223   1845 06 2B               LD B,2BH
4224   1847 10 FE       L0386:  DJNZ L0386
4225   1849 D3 FE               OUT (0FEH),A
4226   184B 69                  LD L,C
4227   184C 01 08 3B            LD BC,3B08H
4228   184F 10 FE       L0387:  DJNZ L0387
4229   1851 79                  LD A,C
4230   1852 D3 FE               OUT (0FEH),A
4231   1854 06 38               LD B,38H
4232   1856 C3 8A 18            JP L0388
4233   1859 79          L0392:  LD A,C
4234   185A CB 78               BIT 7,B
4235   185C 10 FE       L0389:  DJNZ L0389
4236   185E 30 04               JR NC,L0390
4237   1860 06 3D               LD B,3DH
4238   1862 10 FE       L0391:  DJNZ L0391
4239   1864 D3 FE       L0390:  OUT (0FEH),A
4240   1866 06 3A               LD B,3AH
4241   1868 C2 59 18            JP NZ,L0392
4242   186B 05                  DEC B
4243   186C AF                  XOR A
4244   186D CB 15       L0394:  RL L
4245   186F C2 5C 18            JP NZ,L0389
4246   1872 1B                  DEC DE
4247   1873 FD 23               INC IY
4248   1875 06 2E               LD B,2EH
4249   1877 3E 7F               LD A,7FH
4250   1879 DB FE               IN A,(0FEH)
4251   187B 1F                  RRA
4252   187C D0                  RET NC
4253   187D 7A                  LD A,D
4254   187E FE FF               CP 0FFH
4255   1880 D0                  RET NC
4256   1881 B3                  OR E
4257   1882 28 0B               JR Z,L0393
4258   1884 FD 6E 00            LD L,(IY+00H)
4259   1887 7C          L0395:  LD A,H
4260   1888 AD                  XOR L
4261   1889 67                  LD H,A
4262   188A AF          L0388:  XOR A
4263   188B 37                  SCF
4264   188C C3 6D 18            JP L0394
4265   188F 6C          L0393:  LD L,H
4266   1890 18 F5               JR L0395
4267   1892 FD E1               POP IY
4268   1894 08                  EX AF,AF'
4269   1895 06 3B               LD B,3BH
4270   1897 10 FE       L0396:  DJNZ L0396
4271   1899 AF                  XOR A
4272   189A D3 FE               OUT (0FEH),A
4273   189C 3E 7F               LD A,7FH
4274   189E DB FE               IN A,(0FEH)
4275   18A0 1F                  RRA
4276   18A1 FB                  EI
4277   18A2 D2 F0 04            JP NC,L0397
4278   18A5 08                  EX AF,AF'
4279   18A6 C9                  RET
4280   18A7 F3          L0421:  DI
4281   18A8 FD E5               PUSH IY
4282   18AA E5                  PUSH HL
4283   18AB FD E1               POP IY
4284   18AD 21 92 18            LD HL,1892H
4285   18B0 E5                  PUSH HL
4286   18B1 61                  LD H,C
4287   18B2 08                  EX AF,AF'
4288   18B3 AF                  XOR A
4289   18B4 4F                  LD C,A
4290   18B5 C0          L0399:  RET NZ
4291   18B6 2E 00       L0400:  LD L,00H
4292   18B8 06 B8       L0401:  LD B,0B8H
4293   18BA CD 11 19            CALL L0398
4294   18BD 30 F6               JR NC,L0399
4295   18BF 3E DF               LD A,0DFH
4296   18C1 B8                  CP B
4297   18C2 30 F2               JR NC,L0400
4298   18C4 2C                  INC L
4299   18C5 20 F1               JR NZ,L0401
4300   18C7 06 CF       L0403:  LD B,0CFH
4301   18C9 CD 15 19            CALL L0402
4302   18CC 30 E7               JR NC,L0399
4303   18CE 78                  LD A,B
4304   18CF FE D8               CP 0D8H
4305   18D1 30 F4               JR NC,L0403
4306   18D3 CD 15 19            CALL L0402
4307   18D6 D0                  RET NC
4308   18D7 CD FC 18            CALL L0404
4309   18DA D0                  RET NC
4310   18DB 3F                  CCF
4311   18DC C0                  RET NZ
4312   18DD 18 11               JR L0405
4313   18DF 08          L0408:  EX AF,AF'
4314   18E0 30 05               JR NC,L0406
4315   18E2 FD 75 00            LD (IY+00H),L
4316   18E5 18 05               JR L0407
4317   18E7 FD 7E 00    L0406:  LD A,(IY+00H)
4318   18EA AD                  XOR L
4319   18EB C0                  RET NZ
4320   18EC FD 23       L0407:  INC IY
4321   18EE 1B                  DEC DE
4322   18EF 08                  EX AF,AF'
4323   18F0 CD FC 18    L0405:  CALL L0404
4324   18F3 D0                  RET NC
4325   18F4 7A                  LD A,D
4326   18F5 B3                  OR E
4327   18F6 20 E7               JR NZ,L0408
4328   18F8 7C                  LD A,H
4329   18F9 FE 01               CP 01H
4330   18FB C9                  RET
4331   18FC 2E 01       L0404:  LD L,01H
4332   18FE 06 C7       L0258:  LD B,0C7H
4333   1900 CD 11 19            CALL L0398
4334   1903 D0                  RET NC
4335   1904 3E E2               LD A,0E2H
4336   1906 B8                  CP B
4337   1907 CB 15               RL L
4338   1909 D2 FE 18            JP NC,L0258
4339   190C 7C                  LD A,H
4340   190D AD                  XOR L
4341   190E 67                  LD H,A
4342   190F 37                  SCF
4343   1910 C9                  RET
4344   1911 CD 15 19    L0398:  CALL L0402
4345   1914 D0                  RET NC
4346   1915 3E 14       L0402:  LD A,14H
4347   1917 3D          L0409:  DEC A
4348   1918 20 FD               JR NZ,L0409
4349   191A A7                  AND A
4350   191B 04          L0410:  INC B
4351   191C C8                  RET Z
4352   191D 3E 7F               LD A,7FH
4353   191F DB FE               IN A,(0FEH)
4354   1921 1F                  RRA
4355   1922 D0                  RET NC
4356   1923 A9                  XOR C
4357   1924 E6 10               AND 10H
4358   1926 28 F3               JR Z,L0410
4359   1928 79                  LD A,C
4360   1929 2F                  CPL
4361   192A 4F                  LD C,A
4362   192B 37                  SCF
4363   192C C9                  RET
4364   192D 53                  LD D,E
4365   192E 41                  LD B,C
4366   192F 56                  LD D,(HL)
4367   1930 C5                  PUSH BC
4368   1931 6F                  LD L,A
4369   1932 16 04               LD D,04H
4370   1934 C3 0E 10            JP L0411
4371   1937 1A                  LD A,(DE)
4372   1938 4F                  LD C,A
4373   1939 1A                  LD A,(DE)
4374   193A B6                  OR (HL)
4375   193B 04                  INC B
4376   193C 42                  LD B,D
4377   193D 53                  LD D,E
4378   193E 41                  LD B,C
4379   193F 56                  LD D,(HL)
4380   1940 C5                  PUSH BC
4381   1941 33                  INC SP
4382   1942 19                  ADD HL,DE
4383   1943 05          L0413:  DEC B
4384   1944 C3 0E 3D            JP L0412
4385   1947 1A                  LD A,(DE)
4386   1948 4F                  LD C,A
4387   1949 1A                  LD A,(DE)
4388   194A B6                  OR (HL)
4389   194B 04                  INC B
4390   194C 42                  LD B,D
4391   194D 4C                  LD C,H
4392   194E 4F                  LD C,A
4393   194F 41                  LD B,C
4394   1950 C4 43 19            CALL NZ,L0413
4395   1953 05                  DEC B
4396   1954 C3 0E 3D            JP L0412
4397   1957 1A                  LD A,(DE)
4398   1958 74                  LD (HL),H
4399   1959 1A                  LD A,(DE)
4400   195A B8                  CP B
4401   195B 1A                  LD A,(DE)
4402   195C B6                  OR (HL)
4403   195D 04                  INC B
4404   195E 56                  LD D,(HL)
4405   195F 45                  LD B,L
4406   1960 52                  LD D,D
4407   1961 49                  LD C,C
4408   1962 46                  LD B,(HL)
4409   1963 D9                  EXX
4410   1964 53                  LD D,E
4411   1965 19                  ADD HL,DE
4412   1966 06 C3               LD B,0C3H
4413   1968 0E 10               LD C,10H
4414   196A 1A                  LD A,(DE)
4415   196B 71                  LD (HL),C
4416   196C 12                  LD (DE),A
4417   196D 0F                  RRCA
4418   196E 00                  NOP
4419   196F 42                  LD B,D
4420   1970 56                  LD D,(HL)
4421   1971 45                  LD B,L
4422   1972 52                  LD D,D
4423   1973 49                  LD C,C
4424   1974 46                  LD B,(HL)
4425   1975 D9                  EXX
4426   1976 66                  LD H,(HL)
4427   1977 19                  ADD HL,DE
4428   1978 07          L0414:  RLCA
4429   1979 C3 0E 3D            JP L0412
4430   197C 1A                  LD A,(DE)
4431   197D 74                  LD (HL),H
4432   197E 1A                  LD A,(DE)
4433   197F BE                  CP (HL)
4434   1980 1A                  LD A,(DE)
4435   1981 B6                  OR (HL)
4436   1982 04                  INC B
4437   1983 4C                  LD C,H
4438   1984 4F                  LD C,A
4439   1985 41                  LD B,C
4440   1986 C4 78 19            CALL NZ,L0414
4441   1989 04                  INC B
4442   198A C3 0E 10            JP L0411
4443   198D 1A                  LD A,(DE)
4444   198E 0E 1A               LD C,1AH
4445   1990 2A 37 3C            LD HL,(3C37H)
4446   1993 22 0E 23            LD (230EH),HL
4447   1996 EB                  EX DE,HL
4448   1997 21 CC FF            LD HL,0FFCCH
4449   199A 39                  ADD HL,SP
4450   199B A7                  AND A
4451   199C ED 52               SBC HL,DE
4452   199E 22 0C 23            LD (230CH),HL
4453   19A1 CD B9 04            CALL L0018
4454   19A4 74                  LD (HL),H
4455   19A5 1A                  LD A,(DE)
4456   19A6 B8                  CP B
4457   19A7 1A                  LD A,(DE)
4458   19A8 0E 1A               LD C,1AH
4459   19AA ED 4B 37 3C         LD BC,(3C37H)
4460   19AE 21 50 3C            LD HL,3C50H
4461   19B1 22 01 27            LD (2701H),HL
4462   19B4 23                  INC HL
4463   19B5 22 09 27            LD (2709H),HL
4464   19B8 2A 25 23            LD HL,(2325H)
4465   19BB 09                  ADD HL,BC
4466   19BC 22 37 3C            LD (3C37H),HL
4467   19BF 21 AF C3            LD HL,0C3AFH
4468   19C2 09                  ADD HL,BC
4469   19C3 22 0B 27            LD (270BH),HL
4470   19C6 ED 5B 29 23         LD DE,(2329H)
4471   19CA 19                  ADD HL,DE
4472   19CB ED 5B 4C 3C         LD DE,(3C4CH)
4473   19CF 22 4C 3C            LD (3C4CH),HL
4474   19D2 C5                  PUSH BC
4475   19D3 D5                  PUSH DE
4476   19D4 ED 73 0D 27 L0417:  LD (270DH),SP
4477   19D8 CD 04 15            CALL L0332
4478   19DB C1                  POP BC
4479   19DC E1                  POP HL
4480   19DD CB 7E       L0415:  BIT 7,(HL)
4481   19DF 23                  INC HL
4482   19E0 28 FB               JR Z,L0415
4483   19E2 23                  INC HL
4484   19E3 23                  INC HL
4485   19E4 71                  LD (HL),C
4486   19E5 23                  INC HL
4487   19E6 70                  LD (HL),B
4488   19E7 2A 37 3C            LD HL,(3C37H)
4489   19EA 01 0C 00            LD BC,000CH
4490   19ED 09                  ADD HL,BC
4491   19EE 22 3B 3C            LD (3C3BH),HL
4492   19F1 FD E9               JP (IY)
4493   19F3 C3 0E 4B            JP L0242
4494   19F6 10 20               DJNZ L0416
4495   19F8 AB                  XOR E
4496   19F9 05                  DEC B
4497   19FA 0E 1A               LD C,1AH
4498   19FC CD 2E 0F            CALL L0318
4499   19FF DF                  RST 18H
4500   1A00 3E 20               LD A,20H
4501   1A02 12                  LD (DE),A
4502   1A03 11 0C 27            LD DE,270CH
4503   1A06 21 FF 27            LD HL,27FFH
4504   1A09 CD FA 07            CALL L0065
4505   1A0C FD E9               JP (IY)
4506   1A0E FB                  EI
4507   1A0F 18 C3               JR L0417
4508   1A11 0E F3               LD C,0F3H
4509   1A13 19                  ADD HL,DE
4510   1A14 0E 1A               LD C,1AH
4511   1A16 AF                  XOR A
4512   1A17 32 01 23            LD (2301H),A
4513   1A1A 21 51 3C            LD HL,3C51H
4514   1A1D 22 0E 23            LD (230EH),HL
4515   1A20 EB                  EX DE,HL
4516   1A21 2A 37 3C            LD HL,(3C37H)
4517   1A24 A7                  AND A
4518   1A25 ED 52               SBC HL,DE
4519   1A27 22 0C 23            LD (230CH),HL
4520   1A2A 2A 4C 3C            LD HL,(3C4CH)
4521   1A2D 22 10 23            LD (2310H),HL
4522   1A30 21 31 3C            LD HL,3C31H
4523   1A33 11 12 23            LD DE,2312H
4524   1A36 01 08 00            LD BC,0008H
4525   1A39 ED B0               LDIR
4526   1A3B FD E9               JP (IY)
4527   1A3D C3 0E F3            JP L0418
4528   1A40 19                  ADD HL,DE
4529   1A41 11 10 0C            LD DE,0C10H
4530   1A44 23                  INC HL
4531   1A45 C1                  POP BC
4532   1A46 08                  EX AF,AF'
4533   1A47 11 10 0E            LD DE,0E10H
4534   1A4A 23                  INC HL
4535   1A4B C1                  POP BC
4536   1A4C 08                  EX AF,AF'
4537   1A4D B6                  OR (HL)
4538   1A4E 04                  INC B
4539   1A4F 51                  LD D,C
4540   1A50 1A                  LD A,(DE)
4541   1A51 3A 02 23            LD A,(2302H)
4542   1A54 A7                  AND A
4543   1A55 28 5F               JR Z,L0419
4544   1A57 2A 0C 23            LD HL,(230CH)
4545   1A5A 7C                  LD A,H
4546   1A5B B5                  OR L
4547   1A5C 28 58               JR Z,L0419
4548   1A5E E5                  PUSH HL
4549   1A5F 11 19 00            LD DE,0019H
4550   1A62 21 01 23            LD HL,2301H
4551   1A65 4A                  LD C,D
4552   1A66 CD 20 18            CALL L0420
4553   1A69 D1                  POP DE
4554   1A6A 2A 0E 23            LD HL,(230EH)
4555   1A6D 0E FF               LD C,0FFH
4556   1A6F CD 20 18            CALL L0420
4557   1A72 FD E9               JP (IY)
4558   1A74 76                  HALT
4559   1A75 1A                  LD A,(DE)
4560   1A76 11 19 00    L0422:  LD DE,0019H
4561   1A79 21 1A 23            LD HL,231AH
4562   1A7C 4A                  LD C,D
4563   1A7D 37                  SCF
4564   1A7E CD A7 18            CALL L0421
4565   1A81 30 F3               JR NC,L0422
4566   1A83 11 1A 23            LD DE,231AH
4567   1A86 1A                  LD A,(DE)
4568   1A87 A7                  AND A
4569   1A88 20 0B               JR NZ,L0423
4570   1A8A CD 08 18            CALL L0023
4571   1A8D 0D                  DEC C
4572   1A8E 44                  LD B,H
4573   1A8F 69                  LD L,C
4574   1A90 63                  LD H,E
4575   1A91 74                  LD (HL),H
4576   1A92 BA                  CP D
4577   1A93 18 0A               JR L0424
4578   1A95 CD 08 18    L0423:  CALL L0023
4579   1A98 0D                  DEC C
4580   1A99 42                  LD B,D
4581   1A9A 79                  LD A,C
4582   1A9B 74                  LD (HL),H
4583   1A9C 65                  LD H,L
4584   1A9D 73                  LD (HL),E
4585   1A9E BA                  CP D
4586   1A9F 21 01 23    L0424:  LD HL,2301H
4587   1AA2 01 0B 0B            LD BC,0B0BH
4588   1AA5 18 02               JR L0425
4589   1AA7 1A          L0427:  LD A,(DE)
4590   1AA8 CF                  RST 08H
4591   1AA9 1A          L0425:  LD A,(DE)
4592   1AAA BE                  CP (HL)
4593   1AAB 20 01               JR NZ,L0426
4594   1AAD 0D                  DEC C
4595   1AAE 23          L0426:  INC HL
4596   1AAF 13                  INC DE
4597   1AB0 10 F5               DJNZ L0427
4598   1AB2 20 C2               JR NZ,L0422
4599   1AB4 FD E9               JP (IY)
4600   1AB6 E7          L0419:  RST 20H
4601   1AB7 0A                  LD A,(BC)
4602   1AB8 BA                  CP D
4603   1AB9 1A                  LD A,(DE)
4604   1ABA 06 FF               LD B,0FFH
4605   1ABC 18 12               JR L0428
4606   1ABE C0                  RET NZ
4607   1ABF 1A                  LD A,(DE)
4608   1AC0 21 12 23            LD HL,2312H
4609   1AC3 11 2B 23            LD DE,232BH
4610   1AC6 06 08               LD B,08H
4611   1AC8 1A          L0429:  LD A,(DE)
4612   1AC9 13                  INC DE
4613   1ACA BE                  CP (HL)
4614   1ACB 23                  INC HL
4615   1ACC 20 E8               JR NZ,L0419
4616   1ACE 10 F8               DJNZ L0429
4617   1AD0 2A 0C 23    L0428:  LD HL,(230CH)
4618   1AD3 ED 5B 25 23         LD DE,(2325H)
4619   1AD7 7C                  LD A,H
4620   1AD8 B5                  OR L
4621   1AD9 28 04               JR Z,L0430
4622   1ADB ED 52               SBC HL,DE
4623   1ADD 38 D7               JR C,L0419
4624   1ADF 2A 0E 23    L0430:  LD HL,(230EH)
4625   1AE2 7C                  LD A,H
4626   1AE3 B5                  OR L
4627   1AE4 20 03               JR NZ,L0431
4628   1AE6 2A 27 23            LD HL,(2327H)
4629   1AE9 0E FF       L0431:  LD C,0FFH
4630   1AEB CB 18               RR B
4631   1AED CD A7 18            CALL L0421
4632   1AF0 30 C4               JR NC,L0419
4633   1AF2 FD E9               JP (IY)
4634   1AF4 01 0F 3C    L0443:  LD BC,3C0FH
4635   1AF7 AF                  XOR A
4636   1AF8 02          L0432:  LD (BC),A
4637   1AF9 0D                  DEC C
4638   1AFA 20 FC               JR NZ,L0432
4639   1AFC 2A 3B 3C            LD HL,(3C3BH)
4640   1AFF 11 FC FF            LD DE,0FFFCH
4641   1B02 2B                  DEC HL
4642   1B03 4E                  LD C,(HL)
4643   1B04 77                  LD (HL),A
4644   1B05 19                  ADD HL,DE
4645   1B06 23                  INC HL
4646   1B07 22 3B 3C            LD (3C3BH),HL
4647   1B0A 2B                  DEC HL
4648   1B0B 46                  LD B,(HL)
4649   1B0C 77                  LD (HL),A
4650   1B0D 79                  LD A,C
4651   1B0E 0F                  RRCA
4652   1B0F A8                  XOR B
4653   1B10 E6 7F               AND 7FH
4654   1B12 A8                  XOR B
4655   1B13 32 02 3C            LD (3C02H),A
4656   1B16 CB B8               RES 7,B
4657   1B18 CB B9               RES 7,C
4658   1B1A ED 43 00 3C         LD (3C00H),BC
4659   1B1E 23                  INC HL
4660   1B1F EB                  EX DE,HL
4661   1B20 19                  ADD HL,DE
4662   1B21 C9                  RET
4663   1B22 3E 09       L0445:  LD A,09H
4664   1B24 B8                  CP B
4665   1B25 30 01               JR NC,L0433
4666   1B27 47                  LD B,A
4667   1B28 0E 04       L0433:  LD C,04H
4668   1B2A 23                  INC HL
4669   1B2B 23                  INC HL
4670   1B2C 23                  INC HL
4671   1B2D AF                  XOR A
4672   1B2E ED 67       L0434:  RRD
4673   1B30 2B                  DEC HL
4674   1B31 0D                  DEC C
4675   1B32 20 FA               JR NZ,L0434
4676   1B34 23                  INC HL
4677   1B35 10 F1               DJNZ L0433
4678   1B37 C6 FB               ADD A,0FBH
4679   1B39 E5                  PUSH HL
4680   1B3A 7E          L0435:  LD A,(HL)
4681   1B3B 88                  ADC A,B
4682   1B3C 27                  DAA
4683   1B3D 77                  LD (HL),A
4684   1B3E 23                  INC HL
4685   1B3F 38 F9               JR C,L0435
4686   1B41 E1                  POP HL
4687   1B42 C9                  RET
4688   1B43 C5          L0447:  PUSH BC
4689   1B44 E5                  PUSH HL
4690   1B45 06 04               LD B,04H
4691   1B47 A7                  AND A
4692   1B48 3E 00       L0436:  LD A,00H
4693   1B4A 9E                  SBC A,(HL)
4694   1B4B 27                  DAA
4695   1B4C 77                  LD (HL),A
4696   1B4D 23                  INC HL
4697   1B4E 10 F8               DJNZ L0436
4698   1B50 E1                  POP HL
4699   1B51 C1                  POP BC
4700   1B52 C9                  RET
4701   1B53 0E 01       L0449:  LD C,01H
4702   1B55 E5          L0458:  PUSH HL
4703   1B56 D5                  PUSH DE
4704   1B57 C5                  PUSH BC
4705   1B58 79                  LD A,C
4706   1B59 E6 0F               AND 0FH
4707   1B5B 47                  LD B,A
4708   1B5C A9                  XOR C
4709   1B5D 4F                  LD C,A
4710   1B5E 0F                  RRCA
4711   1B5F 0F                  RRCA
4712   1B60 81                  ADD A,C
4713   1B61 0F                  RRCA
4714   1B62 80                  ADD A,B
4715   1B63 4F                  LD C,A
4716   1B64 06 04               LD B,04H
4717   1B66 AF                  XOR A
4718   1B67 C5          L0440:  PUSH BC
4719   1B68 D5                  PUSH DE
4720   1B69 E5                  PUSH HL
4721   1B6A 86                  ADD A,(HL)
4722   1B6B 27                  DAA
4723   1B6C 6F                  LD L,A
4724   1B6D 1A                  LD A,(DE)
4725   1B6E 26 00               LD H,00H
4726   1B70 54                  LD D,H
4727   1B71 CB 14               RL H
4728   1B73 A7                  AND A
4729   1B74 28 1B               JR Z,L0437
4730   1B76 5F                  LD E,A
4731   1B77 CB 39       L0439:  SRL C
4732   1B79 30 08               JR NC,L0438
4733   1B7B 7D                  LD A,L
4734   1B7C 83                  ADD A,E
4735   1B7D 27                  DAA
4736   1B7E 6F                  LD L,A
4737   1B7F 7C                  LD A,H
4738   1B80 8A                  ADC A,D
4739   1B81 27                  DAA
4740   1B82 67                  LD H,A
4741   1B83 0C          L0438:  INC C
4742   1B84 0D                  DEC C
4743   1B85 28 0A               JR Z,L0437
4744   1B87 7B                  LD A,E
4745   1B88 87                  ADD A,A
4746   1B89 27                  DAA
4747   1B8A 5F                  LD E,A
4748   1B8B 7A                  LD A,D
4749   1B8C 8F                  ADC A,A
4750   1B8D 27                  DAA
4751   1B8E 57                  LD D,A
4752   1B8F 18 E6               JR L0439
4753   1B91 EB          L0437:  EX DE,HL
4754   1B92 E1                  POP HL
4755   1B93 73                  LD (HL),E
4756   1B94 7A                  LD A,D
4757   1B95 D1                  POP DE
4758   1B96 C1                  POP BC
4759   1B97 13                  INC DE
4760   1B98 23                  INC HL
4761   1B99 10 CC               DJNZ L0440
4762   1B9B C1                  POP BC
4763   1B9C D1                  POP DE
4764   1B9D E1                  POP HL
4765   1B9E C9                  RET
4766   1B9F 46                  LD B,(HL)
4767   1BA0 AD                  XOR L
4768   1BA1 89                  ADC A,C
4769   1BA2 19                  ADD HL,DE
4770   1BA3 02                  LD (BC),A
4771   1BA4 C3 0E 0F            JP L0441
4772   1BA7 1D                  DEC E
4773   1BA8 0E 1A               LD C,1AH
4774   1BAA 18 07               JR L0442
4775   1BAC 46                  LD B,(HL)
4776   1BAD AB                  XOR E
4777   1BAE A3                  AND E
4778   1BAF 1B                  DEC DE
4779   1BB0 02                  LD (BC),A
4780   1BB1 B3                  OR E
4781   1BB2 1B                  DEC DE
4782   1BB3 CD F4 1A    L0442:  CALL L0443
4783   1BB6 79                  LD A,C
4784   1BB7 90                  SUB B
4785   1BB8 F5                  PUSH AF
4786   1BB9 30 06               JR NC,L0444
4787   1BBB EB                  EX DE,HL
4788   1BBC ED 44               NEG
4789   1BBE DD 70 00            LD (IX+00H),B
4790   1BC1 47          L0444:  LD B,A
4791   1BC2 C4 22 1B            CALL NZ,L0445
4792   1BC5 F1                  POP AF
4793   1BC6 30 01               JR NC,L0446
4794   1BC8 EB                  EX DE,HL
4795   1BC9 06 02       L0446:  LD B,02H
4796   1BCB DD 4E 02            LD C,(IX+02H)
4797   1BCE CB 11       L0448:  RL C
4798   1BD0 DC 43 1B            CALL C,L0447
4799   1BD3 EB                  EX DE,HL
4800   1BD4 10 F8               DJNZ L0448
4801   1BD6 CD 53 1B            CALL L0449
4802   1BD9 1B                  DEC DE
4803   1BDA 1A                  LD A,(DE)
4804   1BDB C6 68               ADD A,68H
4805   1BDD CB 18               RR B
4806   1BDF DD 70 02            LD (IX+02H),B
4807   1BE2 C4 43 1B            CALL NZ,L0447
4808   1BE5 1A          L0452:  LD A,(DE)
4809   1BE6 A7                  AND A
4810   1BE7 20 19               JR NZ,L0450
4811   1BE9 DD 35 00            DEC (IX+00H)
4812   1BEC DD 35 00            DEC (IX+00H)
4813   1BEF D5                  PUSH DE
4814   1BF0 62                  LD H,D
4815   1BF1 6B                  LD L,E
4816   1BF2 2B                  DEC HL
4817   1BF3 01 FF 03            LD BC,03FFH
4818   1BF6 B6          L0451:  OR (HL)
4819   1BF7 ED A8               LDD
4820   1BF9 10 FB               DJNZ L0451
4821   1BFB EB                  EX DE,HL
4822   1BFC 70                  LD (HL),B
4823   1BFD D1                  POP DE
4824   1BFE 20 E5               JR NZ,L0452
4825   1C00 FD E9               JP (IY)
4826   1C02 54          L0450:  LD D,H
4827   1C03 5D                  LD E,L
4828   1C04 D5          L0460:  PUSH DE
4829   1C05 01 04 00            LD BC,0004H
4830   1C08 ED B0               LDIR
4831   1C0A E1                  POP HL
4832   1C0B 1B                  DEC DE
4833   1C0C 1A          L0454:  LD A,(DE)
4834   1C0D A7                  AND A
4835   1C0E 28 11       L0330:  JR Z,L0453
4836   1C10 FE 10               CP 10H
4837   1C12 9F                  SBC A,A
4838   1C13 3C                  INC A
4839   1C14 3C                  INC A
4840   1C15 47                  LD B,A
4841   1C16 DD 86 00            ADD A,(IX+00H)
4842   1C19 32 00 3C            LD (3C00H),A
4843   1C1C CD 22 1B            CALL L0445
4844   1C1F 18 EB               JR L0454
4845   1C21 3A 00 3C    L0453:  LD A,(3C00H)
4846   1C24 3D                  DEC A
4847   1C25 FE BF               CP 0BFH
4848   1C27 3C                  INC A
4849   1C28 30 13               JR NC,L0455
4850   1C2A FE 80               CP 80H
4851   1C2C 30 0D               JR NC,L0456
4852   1C2E 47                  LD B,A
4853   1C2F 3A 02 3C            LD A,(3C02H)
4854   1C32 4F                  LD C,A
4855   1C33 17                  RLA
4856   1C34 A9                  XOR C
4857   1C35 E6 80               AND 80H
4858   1C37 A8                  XOR B
4859   1C38 12                  LD (DE),A
4860   1C39 FD E9               JP (IY)
4861   1C3B E7          L0456:  RST 20H
4862   1C3C 08                  EX AF,AF'
4863   1C3D 01 00 04    L0455:  LD BC,0400H
4864   1C40 71          L0457:  LD (HL),C
4865   1C41 23                  INC HL
4866   1C42 10 FC               DJNZ L0457
4867   1C44 FD E9               JP (IY)
4868   1C46 46                  LD B,(HL)
4869   1C47 AA                  XOR D
4870   1C48 B0                  OR B
4871   1C49 1B                  DEC DE
4872   1C4A 02                  LD (BC),A
4873   1C4B 4D                  LD C,L
4874   1C4C 1C                  INC E
4875   1C4D CD F4 1A            CALL L0443
4876   1C50 AF                  XOR A
4877   1C51 B8                  CP B
4878   1C52 9F                  SBC A,A
4879   1C53 A1                  AND C
4880   1C54 28 E7               JR Z,L0455
4881   1C56 E5                  PUSH HL
4882   1C57 01 02 3C            LD BC,3C02H
4883   1C5A C5                  PUSH BC
4884   1C5B 06 03               LD B,03H
4885   1C5D 4E          L0459:  LD C,(HL)
4886   1C5E 23                  INC HL
4887   1C5F E3                  EX (SP),HL
4888   1C60 23                  INC HL
4889   1C61 CD 55 1B            CALL L0458
4890   1C64 E3                  EX (SP),HL
4891   1C65 10 F6               DJNZ L0459
4892   1C67 ED 4B 00 3C         LD BC,(3C00H)
4893   1C6B 78                  LD A,B
4894   1C6C 81                  ADD A,C
4895   1C6D D6 42               SUB 42H
4896   1C6F 32 00 3C            LD (3C00H),A
4897   1C72 E1                  POP HL
4898   1C73 D1                  POP DE
4899   1C74 18 8E               JR L0460
4900   1C76 46                  LD B,(HL)
4901   1C77 AF                  XOR A
4902   1C78 4A                  LD C,D
4903   1C79 1C                  INC E
4904   1C7A 02                  LD (BC),A
4905   1C7B 7D                  LD A,L
4906   1C7C 1C                  INC E
4907   1C7D CD F4 1A            CALL L0443
4908   1C80 AF                  XOR A
4909   1C81 B8                  CP B
4910   1C82 28 B9               JR Z,L0455
4911   1C84 B9                  CP C
4912   1C85 28 B4               JR Z,L0456
4913   1C87 13                  INC DE
4914   1C88 13                  INC DE
4915   1C89 1A                  LD A,(DE)
4916   1C8A 1B                  DEC DE
4917   1C8B 1B                  DEC DE
4918   1C8C C6 01               ADD A,01H
4919   1C8E 27                  DAA
4920   1C8F 08                  EX AF,AF'
4921   1C90 EB                  EX DE,HL
4922   1C91 CD 43 1B            CALL L0447
4923   1C94 EB                  EX DE,HL
4924   1C95 E5                  PUSH HL
4925   1C96 11 10 3C            LD DE,3C10H
4926   1C99 01 04 00            LD BC,0004H
4927   1C9C ED B0               LDIR
4928   1C9E EB                  EX DE,HL
4929   1C9F 2B                  DEC HL
4930   1CA0 06 05               LD B,05H
4931   1CA2 D5          L0467:  PUSH DE
4932   1CA3 7E                  LD A,(HL)
4933   1CA4 2B                  DEC HL
4934   1CA5 5E                  LD E,(HL)
4935   1CA6 08                  EX AF,AF'
4936   1CA7 4F                  LD C,A
4937   1CA8 08                  EX AF,AF'
4938   1CA9 0C                  INC C
4939   1CAA 0D                  DEC C
4940   1CAB 20 03               JR NZ,L0461
4941   1CAD 5F                  LD E,A
4942   1CAE 18 1B               JR L0462
4943   1CB0 C5          L0461:  PUSH BC
4944   1CB1 06 02               LD B,02H
4945   1CB3 16 10       L0465:  LD D,10H
4946   1CB5 CB 23       L0463:  SLA E
4947   1CB7 17                  RLA
4948   1CB8 CB 12               RL D
4949   1CBA 30 F9               JR NC,L0463
4950   1CBC 14                  INC D
4951   1CBD 91          L0464:  SUB C
4952   1CBE 27                  DAA
4953   1CBF 1C                  INC E
4954   1CC0 30 FB               JR NC,L0464
4955   1CC2 15                  DEC D
4956   1CC3 20 F8               JR NZ,L0464
4957   1CC5 81                  ADD A,C
4958   1CC6 27                  DAA
4959   1CC7 1D                  DEC E
4960   1CC8 10 E9               DJNZ L0465
4961   1CCA C1                  POP BC
4962   1CCB 4B          L0462:  LD C,E
4963   1CCC D1                  POP DE
4964   1CCD 0C                  INC C
4965   1CCE 0D                  DEC C
4966   1CCF 28 17               JR Z,L0466
4967   1CD1 E5                  PUSH HL
4968   1CD2 2B                  DEC HL
4969   1CD3 2B                  DEC HL
4970   1CD4 CD 55 1B            CALL L0458
4971   1CD7 D5                  PUSH DE
4972   1CD8 11 FB FF            LD DE,0FFFBH
4973   1CDB 19                  ADD HL,DE
4974   1CDC 11 03 3C            LD DE,3C03H
4975   1CDF 79                  LD A,C
4976   1CE0 12                  LD (DE),A
4977   1CE1 CD 53 1B            CALL L0449
4978   1CE4 D1                  POP DE
4979   1CE5 E1                  POP HL
4980   1CE6 23                  INC HL
4981   1CE7 04                  INC B
4982   1CE8 10 B8       L0466:  DJNZ L0467
4983   1CEA 2A 00 3C            LD HL,(3C00H)
4984   1CED 7C                  LD A,H
4985   1CEE 95                  SUB L
4986   1CEF C6 40               ADD A,40H
4987   1CF1 21 08 3C            LD HL,3C08H
4988   1CF4 47                  LD B,A
4989   1CF5 3A 0B 3C            LD A,(3C0BH)
4990   1CF8 A7                  AND A
4991   1CF9 20 03               JR NZ,L0468
4992   1CFB 05                  DEC B
4993   1CFC 05                  DEC B
4994   1CFD 2B                  DEC HL
4995   1CFE DD 70 00    L0468:  LD (IX+00H),B
4996   1D01 D1                  POP DE
4997   1D02 C3 04 1C            JP L0460
4998   1D05 46                  LD B,(HL)
4999   1D06 4E                  LD C,(HL)
5000   1D07 45                  LD B,L
5001   1D08 47                  LD B,A
5002   1D09 41                  LD B,C
5003   1D0A 54                  LD D,H
5004   1D0B C5                  PUSH BC
5005   1D0C 7A                  LD A,D
5006   1D0D 1C                  INC E
5007   1D0E 07          L0470:  RLCA
5008   1D0F 11 1D DF            LD DE,0DF1DH
5009   1D12 7A                  LD A,D
5010   1D13 A7                  AND A
5011   1D14 28 02               JR Z,L0469
5012   1D16 EE 80               XOR 80H
5013   1D18 57          L0469:  LD D,A
5014   1D19 D7                  RST 10H
5015   1D1A FD E9               JP (IY)
5016   1D1C 49                  LD C,C
5017   1D1D 4E                  LD C,(HL)
5018   1D1E D4 0E 1D            CALL NC,L0470
5019   1D21 03          L0473:  INC BC
5020   1D22 24                  INC H
5021   1D23 1D                  DEC E
5022   1D24 2A 3B 3C            LD HL,(3C3BH)
5023   1D27 2B                  DEC HL
5024   1D28 11 00 00            LD DE,0000H
5025   1D2B 7E          L0472:  LD A,(HL)
5026   1D2C 07                  RLCA
5027   1D2D FE 82               CP 82H
5028   1D2F 38 14               JR C,L0471
5029   1D31 AF                  XOR A
5030   1D32 2B                  DEC HL
5031   1D33 CD 32 07            CALL L0184
5032   1D36 23                  INC HL
5033   1D37 EB                  EX DE,HL
5034   1D38 44                  LD B,H
5035   1D39 4D                  LD C,L
5036   1D3A 29                  ADD HL,HL
5037   1D3B 29                  ADD HL,HL
5038   1D3C 09                  ADD HL,BC
5039   1D3D 29                  ADD HL,HL
5040   1D3E 4F                  LD C,A
5041   1D3F 06 00               LD B,00H
5042   1D41 09                  ADD HL,BC
5043   1D42 EB                  EX DE,HL
5044   1D43 18 E6               JR L0472
5045   1D45 2B          L0471:  DEC HL
5046   1D46 2B                  DEC HL
5047   1D47 72                  LD (HL),D
5048   1D48 2B                  DEC HL
5049   1D49 73                  LD (HL),E
5050   1D4A 11 94 0D            LD DE,0D94H
5051   1D4D C3 BF 04            JP L0100
5052   1D50 55                  LD D,L
5053   1D51 46                  LD B,(HL)
5054   1D52 4C                  LD C,H
5055   1D53 4F                  LD C,A
5056   1D54 41                  LD B,C
5057   1D55 D4 21 1D            CALL NC,L0473
5058   1D58 06 5B               LD B,5BH
5059   1D5A 1D                  DEC E
5060   1D5B DF                  RST 18H
5061   1D5C EB                  EX DE,HL
5062   1D5D 01 00 10            LD BC,1000H
5063   1D60 51                  LD D,C
5064   1D61 59                  LD E,C
5065   1D62 29          L0474:  ADD HL,HL
5066   1D63 7B                  LD A,E
5067   1D64 8F                  ADC A,A
5068   1D65 27                  DAA
5069   1D66 5F                  LD E,A
5070   1D67 7A                  LD A,D
5071   1D68 8F                  ADC A,A
5072   1D69 27                  DAA
5073   1D6A 57                  LD D,A
5074   1D6B CB 11               RL C
5075   1D6D 10 F3               DJNZ L0474
5076   1D6F D7                  RST 10H
5077   1D70 16 46               LD D,46H
5078   1D72 59                  LD E,C
5079   1D73 D7                  RST 10H
5080   1D74 2B                  DEC HL
5081   1D75 2B                  DEC HL
5082   1D76 CD 40 07            CALL L0140
5083   1D79 FD E9               JP (IY)
5084   1D7B 00                  NOP
5085   1D7C 00                  NOP
5086   1D7D 00                  NOP
5087   1D7E 00                  NOP
5088   1D7F 00                  NOP
5089   1D80 00                  NOP
5090   1D81 00                  NOP
5091   1D82 10 10               DJNZ L0475
5092   1D84 10 10               DJNZ L0476
5093   1D86 00                  NOP
5094   1D87 10 00               DJNZ L0477
5095   1D89 24          L0477:  INC H
5096   1D8A 24                  INC H
5097   1D8B 00                  NOP
5098   1D8C 00                  NOP
5099   1D8D 00                  NOP
5100   1D8E 00                  NOP
5101   1D8F 00                  NOP
5102   1D90 24                  INC H
5103   1D91 7E                  LD A,(HL)
5104   1D92 24                  INC H
5105   1D93 24                  INC H
5106   1D94 7E          L0475:  LD A,(HL)
5107   1D95 24                  INC H
5108   1D96 00          L0476:  NOP
5109   1D97 08                  EX AF,AF'
5110   1D98 3E 28               LD A,28H
5111   1D9A 3E 0A               LD A,0AH
5112   1D9C 3E 08               LD A,08H
5113   1D9E 62                  LD H,D
5114   1D9F 64                  LD H,H
5115   1DA0 08                  EX AF,AF'
5116   1DA1 10 26               DJNZ L0478
5117   1DA3 46                  LD B,(HL)
5118   1DA4 00                  NOP
5119   1DA5 10 28               DJNZ L0479
5120   1DA7 10 2A               DJNZ L0480
5121   1DA9 44                  LD B,H
5122   1DAA 3A 00 08            LD A,(0800H)
5123   1DAD 10 00               DJNZ L0481
5124   1DAF 00          L0481:  NOP
5125   1DB0 00                  NOP
5126   1DB1 00                  NOP
5127   1DB2 00                  NOP
5128   1DB3 04                  INC B
5129   1DB4 08                  EX AF,AF'
5130   1DB5 08                  EX AF,AF'
5131   1DB6 08                  EX AF,AF'
5132   1DB7 08                  EX AF,AF'
5133   1DB8 04                  INC B
5134   1DB9 00                  NOP
5135   1DBA 20 10               JR NZ,L0482
5136   1DBC 10 10               DJNZ L0483
5137   1DBE 10 20               DJNZ L0484
5138   1DC0 00                  NOP
5139   1DC1 00                  NOP
5140   1DC2 14                  INC D
5141   1DC3 08                  EX AF,AF'
5142   1DC4 3E 08               LD A,08H
5143   1DC6 14                  INC D
5144   1DC7 00                  NOP
5145   1DC8 00                  NOP
5146   1DC9 08          L0478:  EX AF,AF'
5147   1DCA 08                  EX AF,AF'
5148   1DCB 3E 08               LD A,08H
5149   1DCD 08                  EX AF,AF'
5150   1DCE 00          L0483:  NOP
5151   1DCF 00          L0479:  NOP
5152   1DD0 00                  NOP
5153   1DD1 00                  NOP
5154   1DD2 00                  NOP
5155   1DD3 08          L0480:  EX AF,AF'
5156   1DD4 08                  EX AF,AF'
5157   1DD5 10 00               DJNZ L0485
5158   1DD7 00          L0485:  NOP
5159   1DD8 00                  NOP
5160   1DD9 3E 00               LD A,00H
5161   1DDB 00                  NOP
5162   1DDC 00                  NOP
5163   1DDD 00                  NOP
5164   1DDE 00                  NOP
5165   1DDF 00                  NOP
5166   1DE0 00          L0484:  NOP
5167   1DE1 18 18               JR L0486
5168   1DE3 00                  NOP
5169   1DE4 00                  NOP
5170   1DE5 02                  LD (BC),A
5171   1DE6 04                  INC B
5172   1DE7 08                  EX AF,AF'
5173   1DE8 10 20               DJNZ L0487
5174   1DEA 00                  NOP
5175   1DEB 3C                  INC A
5176   1DEC 46                  LD B,(HL)
5177   1DED 4A                  LD C,D
5178   1DEE 52                  LD D,D
5179   1DEF 62                  LD H,D
5180   1DF0 3C                  INC A
5181   1DF1 00                  NOP
5182   1DF2 18 28               JR L0488
5183   1DF4 08                  EX AF,AF'
5184   1DF5 08                  EX AF,AF'
5185   1DF6 08                  EX AF,AF'
5186   1DF7 3E 00               LD A,00H
5187   1DF9 3C                  INC A
5188   1DFA 42                  LD B,D
5189   1DFB 02          L0486:  LD (BC),A
5190   1DFC 3C                  INC A
5191   1DFD 40                  LD B,B
5192   1DFE 7E                  LD A,(HL)
5193   1DFF 00                  NOP
5194   1E00 3C                  INC A
5195   1E01 42                  LD B,D
5196   1E02 0C                  INC C
5197   1E03 02                  LD (BC),A
5198   1E04 42                  LD B,D
5199   1E05 3C                  INC A
5200   1E06 00                  NOP
5201   1E07 08                  EX AF,AF'
5202   1E08 18 28               JR L0489
5203   1E0A 48          L0487:  LD C,B
5204   1E0B 7E                  LD A,(HL)
5205   1E0C 08                  EX AF,AF'
5206   1E0D 00                  NOP
5207   1E0E 7E                  LD A,(HL)
5208   1E0F 40                  LD B,B
5209   1E10 7C                  LD A,H
5210   1E11 02                  LD (BC),A
5211   1E12 42                  LD B,D
5212   1E13 3C                  INC A
5213   1E14 00                  NOP
5214   1E15 3C                  INC A
5215   1E16 40                  LD B,B
5216   1E17 7C                  LD A,H
5217   1E18 42                  LD B,D
5218   1E19 42                  LD B,D
5219   1E1A 3C                  INC A
5220   1E1B 00                  NOP
5221   1E1C 7E          L0488:  LD A,(HL)
5222   1E1D 02                  LD (BC),A
5223   1E1E 04                  INC B
5224   1E1F 08                  EX AF,AF'
5225   1E20 10 10               DJNZ L0489
5226   1E22 00                  NOP
5227   1E23 3C                  INC A
5228   1E24 42                  LD B,D
5229   1E25 3C                  INC A
5230   1E26 42                  LD B,D
5231   1E27 42                  LD B,D
5232   1E28 3C                  INC A
5233   1E29 00                  NOP
5234   1E2A 3C                  INC A
5235   1E2B 42                  LD B,D
5236   1E2C 42                  LD B,D
5237   1E2D 3E 02               LD A,02H
5238   1E2F 3C                  INC A
5239   1E30 00                  NOP
5240   1E31 00                  NOP
5241   1E32 00          L0489:  NOP
5242   1E33 10 00               DJNZ L0490
5243   1E35 00          L0490:  NOP
5244   1E36 10 00               DJNZ L0491
5245   1E38 00          L0491:  NOP
5246   1E39 10 00               DJNZ L0492
5247   1E3B 00          L0492:  NOP
5248   1E3C 10 10               DJNZ L0493
5249   1E3E 20 00               JR NZ,L0494
5250   1E40 04          L0494:  INC B
5251   1E41 08                  EX AF,AF'
5252   1E42 10 08               DJNZ L0495
5253   1E44 04                  INC B
5254   1E45 00                  NOP
5255   1E46 00                  NOP
5256   1E47 00                  NOP
5257   1E48 3E 00               LD A,00H
5258   1E4A 3E 00               LD A,00H
5259   1E4C 00          L0495:  NOP
5260   1E4D 00                  NOP
5261   1E4E 10 08       L0493:  DJNZ L0496
5262   1E50 04                  INC B
5263   1E51 08                  EX AF,AF'
5264   1E52 10 00               DJNZ L0497
5265   1E54 3C          L0497:  INC A
5266   1E55 42                  LD B,D
5267   1E56 04                  INC B
5268   1E57 08                  EX AF,AF'
5269   1E58 00          L0496:  NOP
5270   1E59 08                  EX AF,AF'
5271   1E5A 3C                  INC A
5272   1E5B 4A                  LD C,D
5273   1E5C 56                  LD D,(HL)
5274   1E5D 5E                  LD E,(HL)
5275   1E5E 40                  LD B,B
5276   1E5F 3C                  INC A
5277   1E60 3C                  INC A
5278   1E61 42                  LD B,D
5279   1E62 42                  LD B,D
5280   1E63 7E                  LD A,(HL)
5281   1E64 42                  LD B,D
5282   1E65 42                  LD B,D
5283   1E66 7C                  LD A,H
5284   1E67 42                  LD B,D
5285   1E68 7C                  LD A,H
5286   1E69 42                  LD B,D
5287   1E6A 42                  LD B,D
5288   1E6B 7C                  LD A,H
5289   1E6C 3C                  INC A
5290   1E6D 42                  LD B,D
5291   1E6E 40                  LD B,B
5292   1E6F 40                  LD B,B
5293   1E70 42                  LD B,D
5294   1E71 3C                  INC A
5295   1E72 78                  LD A,B
5296   1E73 44                  LD B,H
5297   1E74 42                  LD B,D
5298   1E75 42                  LD B,D
5299   1E76 44                  LD B,H
5300   1E77 78                  LD A,B
5301   1E78 7E                  LD A,(HL)
5302   1E79 40                  LD B,B
5303   1E7A 7C                  LD A,H
5304   1E7B 40                  LD B,B
5305   1E7C 40                  LD B,B
5306   1E7D 7E                  LD A,(HL)
5307   1E7E 7E                  LD A,(HL)
5308   1E7F 40                  LD B,B
5309   1E80 7C                  LD A,H
5310   1E81 40                  LD B,B
5311   1E82 40                  LD B,B
5312   1E83 40                  LD B,B
5313   1E84 3C                  INC A
5314   1E85 42                  LD B,D
5315   1E86 40                  LD B,B
5316   1E87 4E                  LD C,(HL)
5317   1E88 42                  LD B,D
5318   1E89 3C                  INC A
5319   1E8A 42                  LD B,D
5320   1E8B 42                  LD B,D
5321   1E8C 7E                  LD A,(HL)
5322   1E8D 42                  LD B,D
5323   1E8E 42                  LD B,D
5324   1E8F 42                  LD B,D
5325   1E90 3E 08               LD A,08H
5326   1E92 08                  EX AF,AF'
5327   1E93 08                  EX AF,AF'
5328   1E94 08                  EX AF,AF'
5329   1E95 3E 02               LD A,02H
5330   1E97 02                  LD (BC),A
5331   1E98 02                  LD (BC),A
5332   1E99 42                  LD B,D
5333   1E9A 42                  LD B,D
5334   1E9B 3C                  INC A
5335   1E9C 44                  LD B,H
5336   1E9D 48                  LD C,B
5337   1E9E 70                  LD (HL),B
5338   1E9F 48                  LD C,B
5339   1EA0 44                  LD B,H
5340   1EA1 42                  LD B,D
5341   1EA2 40                  LD B,B
5342   1EA3 40                  LD B,B
5343   1EA4 40                  LD B,B
5344   1EA5 40                  LD B,B
5345   1EA6 40                  LD B,B
5346   1EA7 7E                  LD A,(HL)
5347   1EA8 42                  LD B,D
5348   1EA9 66                  LD H,(HL)
5349   1EAA 5A                  LD E,D
5350   1EAB 42                  LD B,D
5351   1EAC 42                  LD B,D
5352   1EAD 42                  LD B,D
5353   1EAE 42                  LD B,D
5354   1EAF 62                  LD H,D
5355   1EB0 52                  LD D,D
5356   1EB1 4A                  LD C,D
5357   1EB2 46                  LD B,(HL)
5358   1EB3 42                  LD B,D
5359   1EB4 3C                  INC A
5360   1EB5 42                  LD B,D
5361   1EB6 42                  LD B,D
5362   1EB7 42                  LD B,D
5363   1EB8 42                  LD B,D
5364   1EB9 3C                  INC A
5365   1EBA 7C                  LD A,H
5366   1EBB 42                  LD B,D
5367   1EBC 42                  LD B,D
5368   1EBD 7C                  LD A,H
5369   1EBE 40                  LD B,B
5370   1EBF 40                  LD B,B
5371   1EC0 3C                  INC A
5372   1EC1 42                  LD B,D
5373   1EC2 42                  LD B,D
5374   1EC3 52                  LD D,D
5375   1EC4 4A                  LD C,D
5376   1EC5 3C                  INC A
5377   1EC6 7C                  LD A,H
5378   1EC7 42                  LD B,D
5379   1EC8 42                  LD B,D
5380   1EC9 7C                  LD A,H
5381   1ECA 44                  LD B,H
5382   1ECB 42                  LD B,D
5383   1ECC 3C                  INC A
5384   1ECD 40                  LD B,B
5385   1ECE 3C                  INC A
5386   1ECF 02                  LD (BC),A
5387   1ED0 42                  LD B,D
5388   1ED1 3C                  INC A
5389   1ED2 FE 10               CP 10H
5390   1ED4 10 10               DJNZ L0498
5391   1ED6 10 10               DJNZ L0499
5392   1ED8 42                  LD B,D
5393   1ED9 42                  LD B,D
5394   1EDA 42                  LD B,D
5395   1EDB 42                  LD B,D
5396   1EDC 42                  LD B,D
5397   1EDD 3E 42               LD A,42H
5398   1EDF 42                  LD B,D
5399   1EE0 42                  LD B,D
5400   1EE1 42                  LD B,D
5401   1EE2 24                  INC H
5402   1EE3 18 42               JR L0500
5403   1EE5 42                  LD B,D
5404   1EE6 42          L0498:  LD B,D
5405   1EE7 42                  LD B,D
5406   1EE8 5A          L0499:  LD E,D
5407   1EE9 24                  INC H
5408   1EEA 42                  LD B,D
5409   1EEB 24                  INC H
5410   1EEC 18 18               JR L0501
5411   1EEE 24                  INC H
5412   1EEF 42                  LD B,D
5413   1EF0 82                  ADD A,D
5414   1EF1 44                  LD B,H
5415   1EF2 28 10               JR Z,L0502
5416   1EF4 10 10               DJNZ L0501
5417   1EF6 7E                  LD A,(HL)
5418   1EF7 04                  INC B
5419   1EF8 08                  EX AF,AF'
5420   1EF9 10 20               DJNZ L0503
5421   1EFB 7E                  LD A,(HL)
5422   1EFC 0E 08               LD C,08H
5423   1EFE 08                  EX AF,AF'
5424   1EFF 08                  EX AF,AF'
5425   1F00 08                  EX AF,AF'
5426   1F01 0E 00               LD C,00H
5427   1F03 40                  LD B,B
5428   1F04 20 10       L0502:  JR NZ,L0504
5429   1F06 08          L0501:  EX AF,AF'
5430   1F07 04                  INC B
5431   1F08 70                  LD (HL),B
5432   1F09 10 10               DJNZ L0503
5433   1F0B 10 10               DJNZ L0505
5434   1F0D 70                  LD (HL),B
5435   1F0E 10 38       L0344:  DJNZ L0506
5436   1F10 54                  LD D,H
5437   1F11 10 10               DJNZ L0507
5438   1F13 10 00               DJNZ L0508
5439   1F15 00          L0508:  NOP
5440   1F16 00          L0504:  NOP
5441   1F17 00                  NOP
5442   1F18 00                  NOP
5443   1F19 00                  NOP
5444   1F1A FF                  RST 38H
5445   1F1B 1C          L0503:  INC E
5446   1F1C 22 78 20            LD (2078H),HL
5447   1F1F 20 7E               JR NZ,L0509
5448   1F21 00                  NOP
5449   1F22 00                  NOP
5450   1F23 38 04       L0507:  JR C,L0510
5451   1F25 3C                  INC A
5452   1F26 44                  LD B,H
5453   1F27 3E 00       L0500:  LD A,00H
5454   1F29 20 20       L0510:  JR NZ,L0511
5455   1F2B 3C                  INC A
5456   1F2C 22 22 3C            LD (3C22H),HL
5457   1F2F 00                  NOP
5458   1F30 00                  NOP
5459   1F31 1C                  INC E
5460   1F32 20 20               JR NZ,L0512
5461   1F34 20 1C               JR NZ,L0513
5462   1F36 00                  NOP
5463   1F37 04                  INC B
5464   1F38 04                  INC B
5465   1F39 3C                  INC A
5466   1F3A 44                  LD B,H
5467   1F3B 44                  LD B,H
5468   1F3C 3E 00               LD A,00H
5469   1F3E 00                  NOP
5470   1F3F 38 44               JR C,L0514
5471   1F41 78                  LD A,B
5472   1F42 40                  LD B,B
5473   1F43 3C                  INC A
5474   1F44 00                  NOP
5475   1F45 0C                  INC C
5476   1F46 10 18               DJNZ L0515
5477   1F48 10 10       L0506:  DJNZ L0516
5478   1F4A 10 00               DJNZ L0517
5479   1F4C 00                  NOP
5480   1F4D 3C                  INC A
5481   1F4E 44                  LD B,H
5482   1F4F 44                  LD B,H
5483   1F50 3C                  INC A
5484   1F51 04                  INC B
5485   1F52 38 40       L0513:  JR C,L0518
5486   1F54 40          L0512:  LD B,B
5487   1F55 78                  LD A,B
5488   1F56 44                  LD B,H
5489   1F57 44                  LD B,H
5490   1F58 44                  LD B,H
5491   1F59 00                  NOP
5492   1F5A 10 00       L0516:  DJNZ L0519
5493   1F5C 30 10       L0519:  JR NC,L0520
5494   1F5E 10 38               DJNZ L0521
5495   1F60 00          L0515:  NOP
5496   1F61 04                  INC B
5497   1F62 00                  NOP
5498   1F63 04                  INC B
5499   1F64 04                  INC B
5500   1F65 04                  INC B
5501   1F66 24                  INC H
5502   1F67 18 20               JR L0522
5503   1F69 28 30               JR Z,L0523
5504   1F6B 30 28               JR NC,L0524
5505   1F6D 24                  INC H
5506   1F6E 00          L0520:  NOP
5507   1F6F 10 10               DJNZ L0525
5508   1F71 10 10               DJNZ L0526
5509   1F73 10 0C               DJNZ L0525
5510   1F75 00                  NOP
5511   1F76 00                  NOP
5512   1F77 68                  LD L,B
5513   1F78 54                  LD D,H
5514   1F79 54                  LD D,H
5515   1F7A 54                  LD D,H
5516   1F7B 54                  LD D,H
5517   1F7C 00                  NOP
5518   1F7D 00                  NOP
5519   1F7E 78                  LD A,B
5520   1F7F 44                  LD B,H
5521   1F80 44                  LD B,H
5522   1F81 44          L0525:  LD B,H
5523   1F82 44                  LD B,H
5524   1F83 00          L0526:  NOP
5525   1F84 00                  NOP
5526   1F85 38 44       L0514:  JR C,L0527
5527   1F87 44                  LD B,H
5528   1F88 44                  LD B,H
5529   1F89 38 00       L0522:  JR C,L0528
5530   1F8B 00          L0528:  NOP
5531   1F8C 78                  LD A,B
5532   1F8D 44                  LD B,H
5533   1F8E 44                  LD B,H
5534   1F8F 78                  LD A,B
5535   1F90 40                  LD B,B
5536   1F91 40                  LD B,B
5537   1F92 00                  NOP
5538   1F93 3C                  INC A
5539   1F94 44          L0518:  LD B,H
5540   1F95 44          L0524:  LD B,H
5541   1F96 3C                  INC A
5542   1F97 04                  INC B
5543   1F98 06 00       L0521:  LD B,00H
5544   1F9A 1C                  INC E
5545   1F9B 20 20       L0523:  JR NZ,L0529
5546   1F9D 20 20               JR NZ,L0530
5547   1F9F 00          L0509:  NOP
5548   1FA0 00                  NOP
5549   1FA1 38 40               JR C,L0531
5550   1FA3 38 04               JR C,L0532
5551   1FA5 78                  LD A,B
5552   1FA6 00                  NOP
5553   1FA7 10 38               DJNZ L0533
5554   1FA9 10 10       L0532:  DJNZ L0534
5555   1FAB 10 0C               DJNZ L0535
5556   1FAD 00                  NOP
5557   1FAE 00                  NOP
5558   1FAF 44                  LD B,H
5559   1FB0 44                  LD B,H
5560   1FB1 44                  LD B,H
5561   1FB2 44                  LD B,H
5562   1FB3 3C                  INC A
5563   1FB4 00                  NOP
5564   1FB5 00                  NOP
5565   1FB6 44                  LD B,H
5566   1FB7 44                  LD B,H
5567   1FB8 28 28               JR Z,L0536
5568   1FBA 10 00               DJNZ L0537
5569   1FBC 00                  NOP
5570   1FBD 44                  LD B,H
5571   1FBE 54                  LD D,H
5572   1FBF 54          L0530:  LD D,H
5573   1FC0 54                  LD D,H
5574   1FC1 28 00               JR Z,L0538
5575   1FC3 00          L0538:  NOP
5576   1FC4 44                  LD B,H
5577   1FC5 28 10               JR Z,L0539
5578   1FC7 28 44               JR Z,L0540
5579   1FC9 00                  NOP
5580   1FCA 00                  NOP
5581   1FCB 44          L0527:  LD B,H
5582   1FCC 44                  LD B,H
5583   1FCD 44                  LD B,H
5584   1FCE 3C                  INC A
5585   1FCF 04                  INC B
5586   1FD0 38 00               JR C,L0541
5587   1FD2 7C          L0541:  LD A,H
5588   1FD3 08                  EX AF,AF'
5589   1FD4 10 20               DJNZ L0542
5590   1FD6 7C                  LD A,H
5591   1FD7 00          L0539:  NOP
5592   1FD8 0E 08               LD C,08H
5593   1FDA 30 30               JR NC,L0543
5594   1FDC 08                  EX AF,AF'
5595   1FDD 0E 00               LD C,00H
5596   1FDF 08                  EX AF,AF'
5597   1FE0 08                  EX AF,AF'
5598   1FE1 08          L0533:  EX AF,AF'
5599   1FE2 08          L0536:  EX AF,AF'
5600   1FE3 08          L0531:  EX AF,AF'
5601   1FE4 08                  EX AF,AF'
5602   1FE5 00                  NOP
5603   1FE6 70                  LD (HL),B
5604   1FE7 10 0C               DJNZ L0544
5605   1FE9 0C                  INC C
5606   1FEA 10 70               DJNZ L0545
5607   1FEC 00                  NOP
5608   1FED 32 4C 00            LD (004CH),A
5609   1FF0 00                  NOP
5610   1FF1 00                  NOP
5611   1FF2 00                  NOP
5612   1FF3 00                  NOP
5613   1FF4 3C                  INC A
5614   1FF5 42          L0544:  LD B,D
5615   1FF6 99          L0542:  SBC A,C
5616   1FF7 A1                  AND C
5617   1FF8 A1                  AND C
5618   1FF9 99                  SBC A,C
5619   1FFA 42                  LD B,D
5620   1FFB 3C                  INC A
5621   1FFC FF                  RST 38H
5622   1FFD 58                  LD E,B
5623   1FFE 1D                  DEC E
5624   1FFF 00                  NOP

---------------------------------------------
LIST OF LABELS
Sorted by address:      Sorted by name:
---------------------------------------------

L0014:  0000            L0001:  0028
L0223:  000E            L0002:  03EE
L0159:  0010            L0003:  085F
L0001:  0028            L0004:  0859
L0006:  003B            L0005:  00AD
L0010:  0055            L0006:  003B
L0009:  005F            L0007:  013A
L0012:  007C            L0008:  0A24
L0011:  0085            L0009:  005F
L0016:  0098            L0010:  0055
L0013:  009B            L0011:  0085
L0005:  00AD            L0012:  007C
L0019:  00D3            L0013:  009B
L0017:  00DE            L0014:  0000
L0021:  00EA            L0015:  04F2
L0022:  00FF            L0016:  0098
L0007:  013A            L0017:  00DE
L0025:  0142            L0018:  04B9
L0026:  0147            L0019:  00D3
L0031:  0167            L0020:  6B0D
L0032:  016D            L0021:  00EA
L0029:  0170            L0022:  00FF
L0028:  0176            L0023:  1808
L0056:  017E            L0024:  B9CD
L0033:  0196            L0025:  0142
L0036:  0198            L0026:  0147
L0037:  01A6            L0027:  0310
L0044:  01C9            L0028:  0176
L0038:  01CE            L0029:  0170
L0046:  01DD            L0030:  0807
L0039:  01E4            L0031:  0167
L0034:  01E6            L0032:  016D
L0050:  0204            L0033:  0196
L0047:  0205            L0034:  01E6
L0058:  0211            L0035:  0282
L0053:  0225            L0036:  0198
L0063:  022C            L0037:  01A6
L0048:  023D            L0038:  01CE
L0049:  023F            L0039:  01E4
L0052:  024E            L0040:  0421
L0051:  0254            L0041:  02B0
L0054:  0269            L0042:  042F
L0062:  0276            L0043:  0443
L0035:  0282            L0044:  01C9
L0057:  0290            L0045:  0302
L0060:  029C            L0046:  01DD
L0059:  02A2            L0047:  0205
L0041:  02B0            L0048:  023D
L0064:  02CA            L0049:  023F
L0103:  02D8            L0050:  0204
L0101:  02EA            L0051:  0254
L0061:  02ED            L0052:  024E
L0055:  02F4            L0053:  0225
L0066:  02F9            L0054:  0269
L0045:  0302            L0055:  02F4
L0027:  0310            L0056:  017E
L0069:  0320            L0057:  0290
L0068:  0325            L0058:  0211
L0071:  0331            L0059:  02A2
L0070:  0332            L0060:  029C
L0067:  0336            L0061:  02ED
L0072:  0347            L0062:  0276
L0077:  034F            L0063:  022C
L0075:  0359            L0064:  02CA
L0073:  0362            L0065:  07FA
L0074:  036B            L0066:  02F9
L0076:  036D            L0067:  0336
L0079:  03A5            L0068:  0325
L0078:  03BE            L0069:  0320
L0080:  03CC            L0070:  0332
L0081:  03CD            L0071:  0331
L0002:  03EE            L0072:  0347
L0083:  03F5            L0073:  0362
L0082:  03FE            L0074:  036B
L0084:  03FF            L0075:  0359
L0085:  0416            L0076:  036D
L0086:  041C            L0077:  034F
L0040:  0421            L0078:  03BE
L0042:  042F            L0079:  03A5
L0087:  043D            L0080:  03CC
L0043:  0443            L0081:  03CD
L0088:  044B            L0082:  03FE
L0089:  045F            L0083:  03F5
L0090:  0472            L0084:  03FF
L0091:  0489            L0085:  0416
L0018:  04B9            L0086:  041C
L0241:  04BA            L0087:  043D
L0100:  04BF            L0088:  044B
L0165:  04D7            L0089:  045F
L0092:  04D9            L0090:  0472
L0094:  04E4            L0091:  0489
L0397:  04F0            L0092:  04D9
L0015:  04F2            L0093:  0F8C
L0096:  053D            L0094:  04E4
L0097:  054D            L0095:  C60E
L0099:  0561            L0096:  053D
L0105:  0577            L0097:  054D
L0102:  0594            L0098:  0597
L0098:  0597            L0099:  0561
L0104:  059B            L0100:  04BF
L0116:  05AA            L0101:  02EA
L0106:  05B3            L0102:  0594
L0108:  05C6            L0103:  02D8
L0109:  05D1            L0104:  059B
L0107:  05E1            L0105:  0577
L0111:  05EA            L0106:  05B3
L0114:  05F3            L0107:  05E1
L0113:  05FC            L0108:  05C6
L0112:  0600            L0109:  05D1
L0115:  0614            L0110:  07DA
L0118:  062C            L0111:  05EA
L0117:  0644            L0112:  0600
L0127:  064B            L0113:  05FC
L0121:  0657            L0114:  05F3
L0125:  0660            L0115:  0614
L0123:  0676            L0116:  05AA
L0124:  067D            L0117:  0644
L0120:  067F            L0118:  062C
L0119:  068A            L0119:  068A
L0128:  0699            L0120:  067F
L0147:  06A8            L0121:  0657
L0130:  06BC            L0122:  15E8
L0132:  06CE            L0123:  0676
L0134:  06D3            L0124:  067D
L0136:  06DF            L0125:  0660
L0138:  06EF            L0126:  17FB
L0139:  06FD            L0127:  064B
L0141:  0711            L0128:  0699
L0131:  0714            L0129:  074C
L0135:  071C            L0130:  06BC
L0133:  0723            L0131:  0714
L0143:  072C            L0132:  06CE
L0184:  0732            L0133:  0723
L0142:  0736            L0134:  06D3
L0140:  0740            L0135:  071C
L0144:  0742            L0136:  06DF
L0129:  074C            L0137:  077B
L0137:  077B            L0138:  06EF
L0145:  0784            L0139:  06FD
L0151:  07CD            L0140:  0740
L0150:  07D7            L0141:  0711
L0110:  07DA            L0142:  0736
L0065:  07FA            L0143:  072C
L0154:  07FB            L0144:  0742
L0155:  07FE            L0145:  0784
L0030:  0807            L0146:  D208
L0156:  0827            L0147:  06A8
L0157:  084E            L0148:  090E
L0004:  0859            L0149:  9608
L0003:  085F            L0150:  07D7
L0160:  08ED            L0151:  07CD
L0162:  08FE            L0152:  0C21
L0148:  090E            L0153:  097F
L0164:  0924            L0154:  07FB
L0163:  094D            L0155:  07FE
L0166:  095B            L0156:  0827
L0313:  0979            L0157:  084E
L0153:  097F            L0158:  DF08
L0170:  0A13            L0159:  0010
L0172:  0A1C            L0160:  08ED
L0008:  0A24            L0161:  D20E
L0171:  0A5F            L0162:  08FE
L0173:  0A69            L0163:  094D
L0174:  0A78            L0164:  0924
L0176:  0A82            L0165:  04D7
L0175:  0A86            L0166:  095B
L0177:  0A94            L0167:  880E
L0188:  0AAE            L0168:  F70E
L0178:  0ABE            L0169:  FF0C
L0179:  0ACA            L0170:  0A13
L0180:  0ACE            L0171:  0A5F
L0182:  0AD7            L0172:  0A1C
L0181:  0ADC            L0173:  0A69
L0183:  0AFC            L0174:  0A78
L0185:  0B05            L0175:  0A86
L0352:  0B0E            L0176:  0A82
L0186:  0B10            L0177:  0A94
L0190:  0B18            L0178:  0ABE
L0189:  0B28            L0179:  0ACA
L0191:  0B6F            L0180:  0ACE
L0192:  0B7F            L0181:  0ADC
L0193:  0B8C            L0182:  0AD7
L0198:  0BAF            L0183:  0AFC
L0196:  0BC7            L0184:  0732
L0197:  0BC9            L0185:  0B05
L0199:  0BCB            L0186:  0B10
L0202:  0BD4            L0187:  180E
L0203:  0BE7            L0188:  0AAE
L0200:  0BEA            L0189:  0B28
L0205:  0BF5            L0190:  0B18
L0195:  0C1C            L0191:  0B6F
L0152:  0C21            L0192:  0B7F
L0204:  0C3C            L0193:  0B8C
L0207:  0C77            L0194:  120E
L0206:  0C99            L0195:  0C1C
L0208:  0CA0            L0196:  0BC7
L0215:  0CA7            L0197:  0BC9
L0210:  0CB3            L0198:  0BAF
L0209:  0CBE            L0199:  0BCB
L0212:  0CD5            L0200:  0BEA
L0214:  0CDB            L0201:  6B0E
L0213:  0CE5            L0202:  0BD4
L0211:  0CF3            L0203:  0BE7
L0219:  0CFF            L0204:  0C3C
L0218:  0D0D            L0205:  0BF5
L0222:  0D50            L0206:  0C99
L0221:  0D5D            L0207:  0C77
L0225:  0D79            L0208:  0CA0
L0228:  0DBF            L0209:  0CBE
L0229:  0DC5            L0210:  0CB3
L0231:  0E17            L0211:  0CF3
L0234:  0E28            L0212:  0CD5
L0233:  0E2D            L0213:  0CE5
L0232:  0E2E            L0214:  0CDB
L0236:  0E35            L0215:  0CA7
L0235:  0E46            L0216:  850E
L0237:  0E4A            L0217:  E908
L0239:  0E75            L0218:  0D0D
L0238:  0E86            L0219:  0CFF
L0240:  0EC0            L0220:  FF0E
L0275:  0EC3            L0221:  0D5D
L0243:  0EF5            L0222:  0D50
L0244:  0F09            L0223:  000E
L0441:  0F0E            L0224:  310E
L0246:  0F1D            L0225:  0D79
L0318:  0F2E            L0226:  C40E
L0247:  0F36            L0227:  2E0E
L0250:  0F5E            L0228:  0DBF
L0249:  0F65            L0229:  0DC5
L0251:  0F8A            L0230:  B60D
L0093:  0F8C            L0231:  0E17
L0254:  0F8F            L0232:  0E2E
L0252:  0F9C            L0233:  0E2D
L0245:  0F9E            L0234:  0E28
L0253:  0FA2            L0235:  0E46
L0255:  0FC2            L0236:  0E35
L0256:  0FCE            L0237:  0E4A
L0257:  0FDA            L0238:  0E86
L0259:  0FE1            L0239:  0E75
L0272:  0FF0            L0240:  0EC0
L0269:  0FFC            L0241:  04BA
L0411:  100E            L0242:  4B0E
L0261:  1015            L0243:  0EF5
L0267:  1019            L0244:  0F09
L0260:  101A            L0245:  0F9E
L0264:  101E            L0246:  0F1D
L0268:  1027            L0247:  0F36
L0266:  102F            L0248:  830E
L0263:  104D            L0249:  0F65
L0273:  104F            L0250:  0F5E
L0262:  106D            L0251:  0F8A
L0276:  1073            L0252:  0F9C
L0274:  107C            L0253:  0FA2
L0271:  1089            L0254:  0F8F
L0279:  108D            L0255:  0FC2
L0265:  1091            L0256:  0FCE
L0281:  10A6            L0257:  0FDA
L0280:  10D5            L0258:  18FE
L0270:  10D9            L0259:  0FE1
L0282:  1100            L0260:  101A
L0283:  110B            L0261:  1015
L0284:  1110            L0262:  106D
L0289:  1135            L0263:  104D
L0287:  1145            L0264:  101E
L0285:  116A            L0265:  1091
L0286:  1177            L0266:  102F
L0290:  11CB            L0267:  1019
L0291:  11E5            L0268:  1027
L0293:  1200            L0269:  0FFC
L0194:  120E            L0270:  10D9
L0296:  1219            L0271:  1089
L0294:  1224            L0272:  0FF0
L0297:  124B            L0273:  104F
L0298:  1278            L0274:  107C
L0311:  127C            L0275:  0EC3
L0308:  1294            L0276:  1073
L0299:  12B7            L0277:  4510
L0303:  12F6            L0278:  4B10
L0302:  1307            L0279:  108D
L0304:  132B            L0280:  10D5
L0301:  132D            L0281:  10A6
L0305:  133F            L0282:  1100
L0307:  1350            L0283:  110B
L0306:  1358            L0284:  1110
L0317:  1387            L0285:  116A
L0310:  1391            L0286:  1177
L0316:  13A1            L0287:  1145
L0312:  13B1            L0288:  159E
L0314:  13B8            L0289:  1135
L0345:  13FC            L0290:  11CB
L0321:  1441            L0291:  11E5
L0323:  1452            L0292:  4411
L0324:  147F            L0293:  1200
L0322:  14CF            L0294:  1224
L0320:  14DA            L0295:  600E
L0325:  14DC            L0296:  1219
L0326:  14F8            L0297:  124B
L0332:  1504            L0298:  1278
L0328:  150B            L0299:  12B7
L0331:  1538            L0300:  DAFF
L0333:  1548            L0301:  132D
L0327:  1557            L0302:  1307
L0334:  1568            L0303:  12F6
L0335:  1584            L0304:  132B
L0336:  1592            L0305:  133F
L0288:  159E            L0306:  1358
L0380:  15A2            L0307:  1350
L0337:  15B1            L0308:  1294
L0319:  15C0            L0309:  4113
L0339:  15D5            L0310:  1391
L0340:  15DB            L0311:  127C
L0338:  15E7            L0312:  13B1
L0122:  15E8            L0313:  0979
L0341:  15F2            L0314:  13B8
L0342:  15F4            L0315:  1815
L0343:  15F9            L0316:  13A1
L0329:  15FB            L0317:  1387
L0346:  1620            L0318:  0F2E
L0347:  1637            L0319:  15C0
L0350:  165D            L0320:  14DA
L0349:  1675            L0321:  1441
L0348:  1679            L0322:  14CF
L0351:  168B            L0323:  1452
L0353:  16B2            L0324:  147F
L0354:  16B4            L0325:  14DC
L0362:  16C3            L0326:  14F8
L0358:  16C7            L0327:  1557
L0357:  16D2            L0328:  150B
L0361:  16DF            L0329:  15FB
L0359:  16E8            L0330:  1C0E
L0360:  1702            L0331:  1538
L0356:  1708            L0332:  1504
L0369:  1712            L0333:  1548
L0371:  1753            L0334:  1568
L0374:  1756            L0335:  1584
L0364:  1765            L0336:  1592
L0370:  1770            L0337:  15B1
L0365:  177D            L0338:  15E7
L0375:  1783            L0339:  15D5
L0366:  178C            L0340:  15DB
L0367:  1799            L0341:  15F2
L0363:  17A4            L0342:  15F4
L0376:  17B2            L0343:  15F9
L0373:  17C1            L0344:  1F0E
L0378:  17CF            L0345:  13FC
L0377:  17D4            L0346:  1620
L0372:  17DA            L0347:  1637
L0382:  17DF            L0348:  1679
L0368:  17E1            L0349:  1675
L0355:  17E4            L0350:  165D
L0379:  17F0            L0351:  168B
L0126:  17FB            L0352:  0B0E
L0023:  1808            L0353:  16B2
L0187:  180E            L0354:  16B4
L0315:  1815            L0355:  17E4
L0420:  1820            L0356:  1708
L0383:  1832            L0357:  16D2
L0385:  1837            L0358:  16C7
L0381:  1839            L0359:  16E8
L0384:  1843            L0360:  1702
L0386:  1847            L0361:  16DF
L0387:  184F            L0362:  16C3
L0392:  1859            L0363:  17A4
L0389:  185C            L0364:  1765
L0391:  1862            L0365:  177D
L0390:  1864            L0366:  178C
L0394:  186D            L0367:  1799
L0395:  1887            L0368:  17E1
L0388:  188A            L0369:  1712
L0393:  188F            L0370:  1770
L0396:  1897            L0371:  1753
L0421:  18A7            L0372:  17DA
L0399:  18B5            L0373:  17C1
L0400:  18B6            L0374:  1756
L0401:  18B8            L0375:  1783
L0403:  18C7            L0376:  17B2
L0408:  18DF            L0377:  17D4
L0406:  18E7            L0378:  17CF
L0407:  18EC            L0379:  17F0
L0405:  18F0            L0380:  15A2
L0404:  18FC            L0381:  1839
L0258:  18FE            L0382:  17DF
L0398:  1911            L0383:  1832
L0402:  1915            L0384:  1843
L0409:  1917            L0385:  1837
L0410:  191B            L0386:  1847
L0413:  1943            L0387:  184F
L0414:  1978            L0388:  188A
L0417:  19D4            L0389:  185C
L0415:  19DD            L0390:  1864
L0416:  1A18            L0391:  1862
L0422:  1A76            L0392:  1859
L0423:  1A95            L0393:  188F
L0424:  1A9F            L0394:  186D
L0427:  1AA7            L0395:  1887
L0425:  1AA9            L0396:  1897
L0426:  1AAE            L0397:  04F0
L0419:  1AB6            L0398:  1911
L0429:  1AC8            L0399:  18B5
L0428:  1AD0            L0400:  18B6
L0430:  1ADF            L0401:  18B8
L0431:  1AE9            L0402:  1915
L0443:  1AF4            L0403:  18C7
L0432:  1AF8            L0404:  18FC
L0445:  1B22            L0405:  18F0
L0433:  1B28            L0406:  18E7
L0434:  1B2E            L0407:  18EC
L0435:  1B3A            L0408:  18DF
L0447:  1B43            L0409:  1917
L0436:  1B48            L0410:  191B
L0449:  1B53            L0411:  100E
L0458:  1B55            L0412:  3D0E
L0440:  1B67            L0413:  1943
L0439:  1B77            L0414:  1978
L0438:  1B83            L0415:  19DD
L0437:  1B91            L0416:  1A18
L0442:  1BB3            L0417:  19D4
L0444:  1BC1            L0418:  F30E
L0446:  1BC9            L0419:  1AB6
L0448:  1BCE            L0420:  1820
L0452:  1BE5            L0421:  18A7
L0451:  1BF6            L0422:  1A76
L0450:  1C02            L0423:  1A95
L0460:  1C04            L0424:  1A9F
L0454:  1C0C            L0425:  1AA9
L0330:  1C0E            L0426:  1AAE
L0453:  1C21            L0427:  1AA7
L0456:  1C3B            L0428:  1AD0
L0455:  1C3D            L0429:  1AC8
L0457:  1C40            L0430:  1ADF
L0459:  1C5D            L0431:  1AE9
L0467:  1CA2            L0432:  1AF8
L0461:  1CB0            L0433:  1B28
L0465:  1CB3            L0434:  1B2E
L0463:  1CB5            L0435:  1B3A
L0464:  1CBD            L0436:  1B48
L0462:  1CCB            L0437:  1B91
L0466:  1CE8            L0438:  1B83
L0468:  1CFE            L0439:  1B77
L0470:  1D0E            L0440:  1B67
L0469:  1D18            L0441:  0F0E
L0473:  1D21            L0442:  1BB3
L0472:  1D2B            L0443:  1AF4
L0471:  1D45            L0444:  1BC1
L0474:  1D62            L0445:  1B22
L0477:  1D89            L0446:  1BC9
L0475:  1D94            L0447:  1B43
L0476:  1D96            L0448:  1BCE
L0481:  1DAF            L0449:  1B53
L0478:  1DC9            L0450:  1C02
L0482:  1DCC            L0451:  1BF6
L0483:  1DCE            L0452:  1BE5
L0479:  1DCF            L0453:  1C21
L0480:  1DD3            L0454:  1C0C
L0485:  1DD7            L0455:  1C3D
L0484:  1DE0            L0456:  1C3B
L0486:  1DFB            L0457:  1C40
L0487:  1E0A            L0458:  1B55
L0488:  1E1C            L0459:  1C5D
L0489:  1E32            L0460:  1C04
L0490:  1E35            L0461:  1CB0
L0491:  1E38            L0462:  1CCB
L0492:  1E3B            L0463:  1CB5
L0494:  1E40            L0464:  1CBD
L0495:  1E4C            L0465:  1CB3
L0493:  1E4E            L0466:  1CE8
L0497:  1E54            L0467:  1CA2
L0496:  1E58            L0468:  1CFE
L0498:  1EE6            L0469:  1D18
L0499:  1EE8            L0470:  1D0E
L0502:  1F04            L0471:  1D45
L0501:  1F06            L0472:  1D2B
L0344:  1F0E            L0473:  1D21
L0508:  1F15            L0474:  1D62
L0504:  1F16            L0475:  1D94
L0503:  1F1B            L0476:  1D96
L0505:  1F1D            L0477:  1D89
L0507:  1F23            L0478:  1DC9
L0500:  1F27            L0479:  1DCF
L0510:  1F29            L0480:  1DD3
L0506:  1F48            L0481:  1DAF
L0511:  1F4B            L0482:  1DCC
L0517:  1F4C            L0483:  1DCE
L0513:  1F52            L0484:  1DE0
L0512:  1F54            L0485:  1DD7
L0516:  1F5A            L0486:  1DFB
L0519:  1F5C            L0487:  1E0A
L0515:  1F60            L0488:  1E1C
L0520:  1F6E            L0489:  1E32
L0525:  1F81            L0490:  1E35
L0526:  1F83            L0491:  1E38
L0514:  1F85            L0492:  1E3B
L0522:  1F89            L0493:  1E4E
L0528:  1F8B            L0494:  1E40
L0518:  1F94            L0495:  1E4C
L0524:  1F95            L0496:  1E58
L0521:  1F98            L0497:  1E54
L0523:  1F9B            L0498:  1EE6
L0509:  1F9F            L0499:  1EE8
L0532:  1FA9            L0500:  1F27
L0535:  1FB9            L0501:  1F06
L0534:  1FBB            L0502:  1F04
L0537:  1FBC            L0503:  1F1B
L0529:  1FBD            L0504:  1F16
L0530:  1FBF            L0505:  1F1D
L0538:  1FC3            L0506:  1F48
L0527:  1FCB            L0507:  1F23
L0541:  1FD2            L0508:  1F15
L0539:  1FD7            L0509:  1F9F
L0533:  1FE1            L0510:  1F29
L0536:  1FE2            L0511:  1F4B
L0531:  1FE3            L0512:  1F54
L0544:  1FF5            L0513:  1F52
L0542:  1FF6            L0514:  1F85
L0543:  200C            L0515:  1F60
L0540:  200D            L0516:  1F5A
L0545:  205C            L0517:  1F4C
L0227:  2E0E            L0518:  1F94
L0224:  310E            L0519:  1F5C
L0412:  3D0E            L0520:  1F6E
L0309:  4113            L0521:  1F98
L0292:  4411            L0522:  1F89
L0277:  4510            L0523:  1F9B
L0242:  4B0E            L0524:  1F95
L0278:  4B10            L0525:  1F81
L0295:  600E            L0526:  1F83
L0020:  6B0D            L0527:  1FCB
L0201:  6B0E            L0528:  1F8B
L0248:  830E            L0529:  1FBD
L0216:  850E            L0530:  1FBF
L0167:  880E            L0531:  1FE3
L0149:  9608            L0532:  1FA9
L0230:  B60D            L0533:  1FE1
L0024:  B9CD            L0534:  1FBB
L0226:  C40E            L0535:  1FB9
L0095:  C60E            L0536:  1FE2
L0146:  D208            L0537:  1FBC
L0161:  D20E            L0538:  1FC3
L0300:  DAFF            L0539:  1FD7
L0158:  DF08            L0540:  200D
L0217:  E908            L0541:  1FD2
L0418:  F30E            L0542:  1FF6
L0168:  F70E            L0543:  200C
L0169:  FF0C            L0544:  1FF5
L0220:  FF0E            L0545:  205C
